******************************************************************************
            TI ARM Clang Linker Unix v1.3.0                    
******************************************************************************
>> Linked Mon May  2 20:23:36 2022

OUTPUT FILE NAME:   </home/a0485151/ti/jacinto/workarea/pdk/packages/ti/binary/ipc_echo_test_freertos/bin/j784s4_evm/ipc_echo_test_freertos_mcu4_0_release.xer5f>
ENTRY POINT SYMBOL: "_freertosresetvectors"  address: 00000000


MEMORY CONFIGURATION

         name            origin    length      used     unused   attr    fill
----------------------  --------  ---------  --------  --------  ----  --------
  MCU_R5F_TCMA_VECS     00000000   00000040  00000040  00000000     X
  MCU_R5F_TCMA          00000040   00007fc0  00000d08  000072b8     X
  MCU2_R5F0_ATCM_RSVD   05c00000   00000040  00000000  00000040  RWIX
  MCU2_R5F0_ATCM        05c00040   00007fc0  00000000  00007fc0  RWIX
  MCU2_R5F0_BTCM_RSVD   05c10000   00000040  00000000  00000040  RWIX
  MCU2_R5F0_BTCM        05c10040   00007fc0  00000000  00007fc0  RWIX
  MCU2_R5F1_ATCM_RSVD   05d00000   00000040  00000000  00000040  RWIX
  MCU2_R5F1_ATCM        05d00040   00007fc0  00000000  00007fc0  RWIX
  MCU2_R5F1_BTCM_RSVD   05d10000   00000040  00000000  00000040  RWIX
  MCU2_R5F1_BTCM        05d10040   00007fc0  00000000  00007fc0  RWIX
  MCU3_R5F0_ATCM_RSVD   05e00000   00000040  00000000  00000040  RWIX
  MCU3_R5F0_ATCM        05e00040   00007fc0  00000000  00007fc0  RWIX
  MCU3_R5F0_BTCM_RSVD   05e10000   00000040  00000000  00000040  RWIX
  MCU3_R5F0_BTCM        05e10040   00007fc0  00000000  00007fc0  RWIX
  MCU3_R5F1_ATCM_RSVD   05f00000   00000040  00000000  00000040  RWIX
  MCU3_R5F1_ATCM        05f00040   00007fc0  00000000  00007fc0  RWIX
  MCU3_R5F1_BTCM_RSVD   05f10000   00000040  00000000  00000040  RWIX
  MCU3_R5F1_BTCM        05f10040   00007fc0  00000000  00007fc0  RWIX
  MCU4_R5F0_ATCM_RSVD   06000000   00000040  00000000  00000040  RWIX
  MCU4_R5F0_ATCM        06000040   00007fc0  00000000  00007fc0  RWIX
  MCU4_R5F0_BTCM_RSVD   06010000   00000040  00000000  00000040  RWIX
  MCU4_R5F0_BTCM        06010040   00007fc0  00000000  00007fc0  RWIX
  MCU4_R5F1_ATCM_RSVD   06100000   00000040  00000000  00000040  RWIX
  MCU4_R5F1_ATCM        06100040   00007fc0  00000000  00007fc0  RWIX
  MCU4_R5F1_BTCM_RSVD   06110000   00000040  00000000  00000040  RWIX
  MCU4_R5F1_BTCM        06110040   00007fc0  00000000  00007fc0  RWIX
  MCU1_R5F0_ATCM_RSVD   41000000   00000040  00000000  00000040  RWIX
  MCU1_R5F0_ATCM        41000040   00007fc0  00000000  00007fc0  RWIX
  MCU_R5F_TCMB_VECS     41010000   00000040  00000000  00000040     X
  MCU_R5F_TCMB          41010040   00007fc0  00000000  00007fc0     X
  MCU1_R5F1_ATCM_RSVD   41400000   00000040  00000000  00000040  RWIX
  MCU1_R5F1_ATCM        41400040   00007fc0  00000000  00007fc0  RWIX
  MCU1_R5F1_BTCM_RSVD   41410000   00000040  00000000  00000040  RWIX
  MCU1_R5F1_BTCM        41410040   00007fc0  00000000  00007fc0  RWIX
  OCMC_RAM_BOARD_CFG    41c80000   00002000  00000000  00002000  RWIX
  OCMC_RAM              41c82000   0007db00  00000000  0007db00  RWIX
  OCMC_RAM_X509_HEADER  41cffb00   00000500  00000000  00000500  RWIX
  MSMC3_ARM_FW          70000000   00040000  00000000  00040000  RWIX
  MSMC3                 70040000   007b0000  00000000  007b0000  RWIX
  MSMC3_DMSC_FW         707f0000   00010000  00000000  00010000  RWIX
  DDR0_RESERVED         80000000   20000000  00000000  20000000  RWIX
  MCU1_0_IPC_DATA       a0000000   00100000  00000000  00100000  RWIX
  MCU1_0_EXT_DATA       a0100000   00100000  00000000  00100000  RWIX
  MCU1_0_R5F_MEM_TEXT   a0200000   00100000  00000000  00100000  RWIX
  MCU1_0_R5F_MEM_DATA   a0300000   00100000  00000000  00100000  RWIX
  MCU1_0_DDR_SPACE      a0400000   00c00000  00000000  00c00000  RWIX
  MCU1_1_IPC_DATA       a1000000   00100000  00000000  00100000  RWIX
  MCU1_1_EXT_DATA       a1100000   00100000  00000000  00100000  RWIX
  MCU1_1_R5F_MEM_TEXT   a1200000   00100000  00000000  00100000  RWIX
  MCU1_1_R5F_MEM_DATA   a1300000   00100000  00000000  00100000  RWIX
  MCU1_1_DDR_SPACE      a1400000   00c00000  00000000  00c00000  RWIX
  MCU2_0_IPC_DATA       a2000000   00100000  00000000  00100000  RWIX
  MCU2_0_EXT_DATA       a2100000   00100000  00000000  00100000  RWIX
  MCU2_0_R5F_MEM_TEXT   a2200000   00100000  00000000  00100000  RWIX
  MCU2_0_R5F_MEM_DATA   a2300000   00100000  00000000  00100000  RWIX
  MCU2_0_DDR_SPACE      a2400000   00c00000  00000000  00c00000  RWIX
  MCU2_1_IPC_DATA       a3000000   00100000  00000000  00100000  RWIX
  MCU2_1_EXT_DATA       a3100000   00100000  00000000  00100000  RWIX
  MCU2_1_R5F_MEM_TEXT   a3200000   00100000  00000000  00100000  RWIX
  MCU2_1_R5F_MEM_DATA   a3300000   00100000  00000000  00100000  RWIX
  MCU2_1_DDR_SPACE      a3400000   00c00000  00000000  00c00000  RWIX
  MCU3_0_IPC_DATA       a4000000   00100000  00000000  00100000  RWIX
  MCU3_0_EXT_DATA       a4100000   00100000  00000000  00100000  RWIX
  MCU3_0_R5F_MEM_TEXT   a4200000   00100000  00000000  00100000  RWIX
  MCU3_0_R5F_MEM_DATA   a4300000   00100000  00000000  00100000  RWIX
  MCU3_0_DDR_SPACE      a4400000   00c00000  00000000  00c00000  RWIX
  MCU3_1_IPC_DATA       a5000000   00100000  00000000  00100000  RWIX
  MCU3_1_EXT_DATA       a5100000   00100000  00000000  00100000  RWIX
  MCU3_1_R5F_MEM_TEXT   a5200000   00100000  00000000  00100000  RWIX
  MCU3_1_R5F_MEM_DATA   a5300000   00100000  00000000  00100000  RWIX
  MCU3_1_DDR_SPACE      a5400000   00c00000  00000000  00c00000  RWIX
  MCU4_0_IPC_DATA       a6000000   00100000  00000000  00100000  RWIX
  MCU4_0_EXT_DATA       a6100000   00100000  00080090  0007ff70  RWIX
  MCU4_0_R5F_MEM_TEXT   a6200000   00100000  00000000  00100000  RWIX
  MCU4_0_R5F_MEM_DATA   a6300000   00100000  00000000  00100000  RWIX
  MCU4_0_DDR_SPACE      a6400000   00c00000  00247070  009b8f90  RWIX
  MCU4_1_IPC_DATA       a7000000   00100000  00000000  00100000  RWIX
  MCU4_1_EXT_DATA       a7100000   00100000  00000000  00100000  RWIX
  MCU4_1_R5F_MEM_TEXT   a7200000   00100000  00000000  00100000  RWIX
  MCU4_1_R5F_MEM_DATA   a7300000   00100000  00000000  00100000  RWIX
  MCU4_1_DDR_SPACE      a7400000   00c00000  00000000  00c00000  RWIX
  C7X_IPC_D             a8000000   00100000  00000000  00100000  RWIX
  C7X_EXT_D             a8100000   00100000  00000000  00100000  RWIX
  C7X_TEXT              a8200000   00100000  00000000  00100000  RWIX
  C7X_DATA              a8300000   00100000  00000000  00100000  RWIX
  C7X_DDR_SPACE         a8400000   00c00000  00000000  00c00000  RWIX
  SHARED_DDR_SPACE      aa000000   01c00000  00000000  01c00000  RWIX


SEGMENT ALLOCATION MAP

run origin  load origin   length   init length attrs members
----------  ----------- ---------- ----------- ----- -------
00000000    00000000    00000d48   00000d48    r-x
  00000000    00000000    00000040   00000040    r-x .freertosrstvectors
  00000040    00000040    00000490   00000490    r-x .text.hwi
  000004d0    000004d0    00000448   00000448    r-x .startupCode
  00000918    00000918    00000318   00000318    r-- .startupData
  00000c30    00000c30    00000118   00000118    r-x .bootCode
a6100000    a6100000    0000008c   0000008c    r--
  a6100000    a6100000    0000008c   0000008c    r-- .resource_table
a6100400    a6100400    00080004   00000000    rw-
  a6100400    a6100400    00080004   00000000    rw- .tracebuf
a6400000    a6400000    001f0700   00000000    rw-
  a6400000    a6400000    001f0700   00000000    rw- ipc_data_buffer
a65f0700    a65f0700    000002c0   000002c0    r--
  a65f0700    a65f0700    000002c0   000002c0    r-- .cinit
a65f2000    a65f2000    00031890   00000000    rw-
  a65f2000    a65f2000    00031890   00000000    rw- .bss
a6623890    a6623890    0000f030   0000f030    r-x
  a6623890    a6623890    0000f030   0000f030    r-x .text
a66328c0    a66328c0    00008000   00000000    rw-
  a66328c0    a66328c0    00008000   00000000    rw- .sysmem
a663a900    a663a900    00004900   00000000    rw-
  a663a900    a663a900    00004900   00000000    rw- .data
a663f200    a663f200    000040f0   000040f0    r--
  a663f200    a663f200    000040f0   000040f0    r-- .rodata
a6ffac00    a6ffac00    00001400   00000000    r--
  a6ffac00    a6ffac00    00000100   00000000    r-- .undStack
  a6ffad00    a6ffad00    00000100   00000000    r-- .svcStack
  a6ffae00    a6ffae00    00001000   00000000    r-- .irqStack
  a6ffbe00    a6ffbe00    00000100   00000000    r-- .fiqStack
  a6ffbf00    a6ffbf00    00000100   00000000    r-- .abortStack
a6ffc000    a6ffc000    00004000   00000000    rw-
  a6ffc000    a6ffc000    00004000   00000000    rw- .stack


SECTION ALLOCATION MAP

 output                                  attributes/
section   page    origin      length       input sections
--------  ----  ----------  ----------   ----------------
.freertosrstvectors 
*          0    00000000    00000040     
                  00000000    00000040     ti.kernel.freertos.aer5f : port_Hwi_handlers_asm.oer5f (.freertosrstvectors)

.text.hwi 
*          0    00000040    00000490     
                  00000040    00000254     ti.kernel.freertos.aer5f : portASM.oer5f (.text.hwi)
                  00000294    0000020c                              : port_Hwi.oer5f (.text.hwi)
                  000004a0    00000008     ti.csl.aer5f : csl_vim.oer5f (.tramp.CSL_vimAckIntr.1)
                  000004a8    00000008                  : csl_arm_r5.oer5f (.tramp.CSL_armR5IntrEnableFiq.1)
                  000004b0    00000008                  : csl_vim.oer5f (.tramp.CSL_vimClrIntrPending.1)
                  000004b8    00000008                  : csl_vim.oer5f (.tramp.CSL_vimGetIntrType.1)
                  000004c0    00000008                  : csl_vim.oer5f (.tramp.CSL_vimGetActivePendingIntr.1)
                  000004c8    00000008                  : csl_vim.oer5f (.tramp.CSL_vimGetFiqVectorAddress.1)

.startupCode 
*          0    000004d0    00000448     
                  000004d0    00000278     ti.csl.init.aer5f : startup.oer5f (.startupCode)
                  00000748    000001cc                       : r5_startup.oer5f (.startupCode)
                  00000914    00000004     --HOLE-- [fill = 00000000]

.text.cache 
*          0    000004d0    00000000     UNINITIALIZED

.text.mpu 
*          0    000004d0    00000000     UNINITIALIZED

.text.boot 
*          0    000004d0    00000000     UNINITIALIZED

.startupData 
*          0    00000918    00000318     
                  00000918    00000314     ti.csl.init.aer5f : startup.oer5f (.startupData)
                  00000c2c    00000004     --HOLE-- [fill = 00000000]

.bootCode 
*          0    00000c30    00000118     
                  00000c30    000000fc     ti.csl.init.aer5f : boot.oer5f (.bootCode)
                  00000d2c    00000008     libc.a : exit.c.obj (.tramp.abort.1)
                  00000d34    00000008            : args_main.c.obj (.tramp._args_main.1)
                  00000d3c    00000008            : autoinit.c.obj (.tramp.__TI_auto_init_nobinit_nopinit.1)
                  00000d44    00000004     --HOLE-- [fill = 00000000]

.resource_table 
*          0    a6100000    0000008c     
                  a6100000    0000008c     ipc_testsetup.oer5f (.resource_table)

.tracebuf 
*          0    a6100400    00080004     UNINITIALIZED
                  a6100400    00080004     ipc_trace.oer5f (.tracebuf)

.cinit     0    a65f0700    000002c0     
                  a65f0700    0000028b     (.cinit..data.load) [load image, compression = lzss]
                  a65f098b    00000001     --HOLE-- [fill = 00000000]
                  a65f098c    0000000c     (__TI_handler_table)
                  a65f0998    00000008     (.cinit..bss.load) [load image, compression = zero_init]
                  a65f09a0    00000008     (.cinit..tracebuf.load) [load image, compression = zero_init]
                  a65f09a8    00000018     (__TI_cinit_table)

.bss       0    a65f2000    00031890     UNINITIALIZED
                  a65f2000    0001e000     (.common:g_taskStackBuf)
                  a6610000    00008000     main_rtos.oer5f (.bss.gAppTskStackMain)
                  a6618000    00007bc0     ti.osal.aer5f : SemaphoreP_freertos.oer5f (.bss.gOsalSemPfreertosPool)
                  a661fbc0    00001868     ipc.aer5f : ipc_api.oer5f (.bss.module)
                  a6621428    00000af0     ti.osal.aer5f : TaskP_freertos.oer5f (.bss.gOsalFreertosTaskObjPool)
                  a6621f18    000008a0     (.common:g_ipc_mBoxData)
                  a66227b8    0000045c     ipc.aer5f : ipc_api.oer5f (.bss.gIpcObject)
                  a6622c14    00000004     ti.osal.aer5f : TimerP_nonos.oer5f (.bss.gTimerAnyMask)
                  a6622c18    00000280                   : TaskP_freertos.oer5f (.bss.gOsalTaskPfreertosPool)
                  a6622e98    00000220     ipc.aer5f : ipc_mp.oer5f (.bss.g_ipcMpConfig)
                  a66230b8    000001f8     ti.osal.aer5f : LoadP_freertos.oer5f (.bss.gLoadP_freertos)
                  a66232b0    00000140                   : Arch_util.oer5f (.bss.hwiStructs)
                  a66233f0    00000140     ti.kernel.freertos.aer5f : tasks.oer5f (.bss.pxReadyTasksLists)
                  a6623530    00000118     ipc.aer5f : ipc_virtio.oer5f (.bss.g_vqTable)
                  a6623648    00000100     (.common:xQueueRegistry)
                  a6623748    00000070               : ipc_virtio.oer5f (.bss.queueRegistry)
                  a66237b8    00000050     (.common:gRovDummyQueue)
                  a6623808    00000038     (.common:gIpcRProcIdToMBoxDataMap)
                  a6623840    00000028     sciclient.aer5f : sciclient_rm_irq.oer5f (.bss.gPstack)
                  a6623868    00000018     (.common:gTimerCntrl)
                  a6623880    00000008     ti.kernel.freertos.aer5f : heap_4.oer5f (.bss.xStart)
                  a6623888    00000004     ti.osal.aer5f : Arch_util.oer5f (.bss.gVimRegs)
                  a662388c    00000004     (.common:gVimBaseAddr)

.text      0    a6623890    0000f030     
                  a6623890    000013b4     libc.a : _scanfi.c.obj (.text.__TI_scanfi)
                  a6624c44    00000ed0            : _printfi.c.obj (.text:__TI_printfi)
                  a6625b14    00000864     sciclient.aer5f : sciclient_rm_irq.oer5f (.text.Sciclient_rmIrqFindRoute)
                  a6626378    00000550     ti.osal.aer5f : TimerP_nonos.oer5f (.text.TimerP_create)
                  a66268c8    000004c4     libc.a : strtod.c.obj (.text.strtod)
                  a6626d8c    00000414     sciclient.aer5f : sciclient.oer5f (.text.Sciclient_serviceSecureProxy)
                  a66271a0    000003cc                     : sciclient_rm_irq.oer5f (.text.Sciclient_rmIrqGetRoute)
                  a662756c    00000334                     : sciclient_rm_irq.oer5f (.text.Sciclient_rmProgramInterruptRoute)
                  a66278a0    000002e8     ti.kernel.freertos.aer5f : timers.oer5f (.text.prvTimerTask)
                  a6627b88    000002dc     ti.csl.aer5f : csl_arm_r5.oer5f (.text)
                  a6627e64    00000284     libc.a : strtoll.c.obj (.text.strtoll)
                  a66280e8    00000278            : _printfi.c.obj (.text._pconv_a)
                  a6628360    00000274     sciclient.aer5f : sciclient_rm_irq.oer5f (.text.Sciclient_rmClearInterruptRoute)
                  a66285d4    00000258     ipc_testsetup.oer5f (.text.Ipc_echo_test)
                  a662882c    00000244     sciclient.aer5f : sciclient.oer5f (.text.Sciclient_init)
                  a6628a70    0000023c     ipc_testsetup.oer5f (.text.rpmsg_responderFxn)
                  a6628cac    00000234     ipc.aer5f : ipc_api.oer5f (.text.RPMessage_init)
                  a6628ee0    00000230     libc.a : _printfi.c.obj (.text._pconv_g)
                  a6629110    00000230     ipc_testsetup.oer5f (.text.rpmsg_senderFxn)
                  a6629340    0000022c     ipc.aer5f : ipc_mailbox.oer5f (.text.Ipc_mailboxRegister)
                  a662956c    00000224     ti.kernel.freertos.aer5f : queue.oer5f (.text.xQueueSemaphoreTake)
                  a6629790    00000220     ipc.aer5f : ipc_api.oer5f (.text.RPMessage_ctrlMsgTask)
                  a66299b0    00000220     libc.a : strtoull.c.obj (.text.strtoull)
                  a6629bd0    00000204            : strtol.c.obj (.text.strtol)
                  a6629dd4    000001f8     ipc.aer5f : ipc_api.oer5f (.text.RPMessage_getRemoteEndPtToken)
                  a6629fcc    000001f4     ti.kernel.freertos.aer5f : queue.oer5f (.text.xQueueGenericSend)
                  a662a1c0    000001d0     libc.a : strtoul.c.obj (.text.strtoul)
                  a662a390    000001d0     libclang_rt.builtins.a : udivsi3.S.obj (.text)
                  a662a560    000001c4     ipc.aer5f : ipc_api.oer5f (.text.RPMessage_send)
                  a662a724    000001b0     ti.kernel.freertos.aer5f : queue.oer5f (.text.xQueueReceive)
                  a662a8d4    000001ac     ti.osal.aer5f : Arch_util.oer5f (.text.OsalArch_HwiPCreate)
                  a662aa80    0000019c     ipc.aer5f : ipc_api.oer5f (.text.RPMessage_rawCreate)
                  a662ac1c    0000019c               : ipc_api.oer5f (.text.RPMessage_recv)
                  a662adb8    00000194               : ipc_api.oer5f (.text.RPMessage_enqueMsg)
                  a662af4c    0000018c     ti.osal.aer5f : TaskP_freertos.oer5f (.text.TaskP_create)
                  a662b0d8    00000180     libsysbm.a : memcpy32.S.obj (.text:memcpy)
                  a662b258    00000168     ti.osal.aer5f : SemaphoreP_freertos.oer5f (.text.SemaphoreP_create)
                  a662b3c0    0000015c     sciclient.aer5f : sciclient_rm_irq.oer5f (.text.Sciclient_rmIrqDeleteRoute)
                  a662b51c    00000158                     : sciclient_rm_irq.oer5f (.text.Sciclient_rmIrqProgramRoute)
                  a662b674    00000004     ti.osal.aer5f : CacheP_nonos.oer5f (.text.CacheP_Inv)
                  a662b678    00000148     libc.a : _printfi.c.obj (.text.fcvt)
                  a662b7c0    00000144     ti.kernel.freertos.aer5f : tasks.oer5f (.text.xTaskIncrementTick)
                  a662b904    00000004     ti.osal.aer5f : DebugP_nonos.oer5f (.text.DebugP_log1)
                  a662b908    00000140     libc.a : s_scalbn.c.obj (.text.scalbn)
                  a662ba48    00000134     ipc.aer5f : ipc_virtio.oer5f (.text.Virtio_create)
                  a662bb7c    00000130               : ipc_api.oer5f (.text.RPMessage_announce)
                  a662bcac    00000130               : ipc_virtio.oer5f (.text.VirtioIPC_createVirtioCorePair)
                  a662bddc    00000004     ti.osal.aer5f : HwiP_freertos.oer5f (.text.HwiP_clearInterrupt)
                  a662bde0    00000130     libc.a : _printfi.c.obj (.text._pconv_e)
                  a662bf10    0000012c     ti.kernel.freertos.aer5f : tasks.oer5f (.text.xTaskResumeAll)
                  a662c03c    00000128                              : tasks.oer5f (.text.prvAddNewTaskToReadyList)
                  a662c164    00000124                              : tasks.oer5f (.text.vTaskSwitchContext)
                  a662c288    00000120     ti.osal.aer5f : LoadP_freertos.oer5f (.text.LoadP_update)
                  a662c3a8    0000011c     ti.kernel.freertos.aer5f : queue.oer5f (.text.xQueueGenericSendFromISR)
                  a662c4c4    00000118     ti.osal.aer5f : TimerP_nonos.oer5f (.text.TimerP_dmTimerSetMicroSeconds)
                  a662c5dc    00000118     ti.kernel.freertos.aer5f : tasks.oer5f (.text.vTaskSuspend)
                  a662c6f4    00000118     libclang_rt.builtins.a : udivmoddi4.S.obj (.text)
                  a662c80c    0000010c     ipc.aer5f : ipc_api.oer5f (.text.RPMessage_delete)
                  a662c918    00000100     ti.osal.aer5f : TimerP_nonos.oer5f (.text.TimerP_start)
                  a662ca18    000000fc     ti.kernel.freertos.aer5f : tasks.oer5f (.text.prvInitialiseNewTask)
                  a662cb14    000000f8                              : timers.oer5f (.text.prvSampleTimeNow)
                  a662cc0c    000000f8                              : queue.oer5f (.text.xQueueGiveFromISR)
                  a662cd04    000000f4                              : port.oer5f (.text.pxPortInitialiseStack)
                  a662cdf8    000000f4                              : tasks.oer5f (.text.vTaskPriorityDisinheritAfterTimeout)
                  a662ceec    000000f4                              : tasks.oer5f (.text.xTaskPriorityInherit)
                  a662cfe0    000000e8     sciclient.aer5f : sciclient.oer5f (.text.Sciclient_serviceGetThreadIds)
                  a662d0c8    000000e8     ti.kernel.freertos.aer5f : tasks.oer5f (.text.vTaskGetInfo)
                  a662d1b0    000000e8                              : queue.oer5f (.text.xQueueGenericCreateStatic)
                  a662d298    000000e8                              : queue.oer5f (.text.xQueueReceiveFromISR)
                  a662d380    000000e0     ipc.aer5f : ipc_api.oer5f (.text.Ipc_init)
                  a662d460    000000e0     ti.kernel.freertos.aer5f : tasks.oer5f (.text.xTaskPriorityDisinherit)
                  a662d540    000000dc     sciclient.aer5f : sciclient_secureproxy.oer5f (.text.Sciclient_sendMessage)
                  a662d61c    000000d8                     : sciclient_rm_irq.oer5f (.text.Sciclient_rmIrInpIsFree)
                  a662d6f4    000000d4     ipc.aer5f : ipc_mailbox.oer5f (.text.Ipc_mailboxSend)
                  a662d7c8    000000d4               : ipc_virtio.oer5f (.text.Ipc_updateVirtioInfo)
                  a662d89c    000000d4     ti.kernel.freertos.aer5f : queue.oer5f (.text.prvCopyDataToQueue)
                  a662d970    000000d0     libc.a : sscanf.c.obj (.text._chkmbc)
                  a662da40    000000d0     ti.kernel.freertos.aer5f : tasks.oer5f (.text.xTaskCreateStatic)
                  a662db10    000000cc                              : tasks.oer5f (.text.vTaskStartScheduler)
                  a662dbdc    000000c4     ipc.aer5f : ipc_soc.oer5f (.text.Ipc_getIntNumRange)
                  a662dca0    000000c4               : ipc_soc.oer5f (.text.Ipc_setCoreEventId)
                  a662dd64    000000c4     sciclient.aer5f : sciclient.oer5f (.text.Sciclient_ISR)
                  a662de28    000000c4     ti.kernel.freertos.aer5f : port.oer5f (.text.xPortStartScheduler)
                  a662deec    000000c0     sciclient.aer5f : sciclient.oer5f (.text.Sciclient_servicePrepareHeader)
                  a662dfac    000000c0     ti.kernel.freertos.aer5f : heap_4.oer5f (.text.vPortFree)
                  a662e06c    000000bc     ipc.aer5f : ipc_mailbox.oer5f (.text.Ipc_mailboxInternalCallback)
                  a662e128    000000bc     sciclient.aer5f : sciclient_rm_irq.oer5f (.text.Sciclient_rmTranslateIntOutput)
                  a662e1e4    000000bc     ipc.aer5f : ipc_virtio.oer5f (.text.VirtioIPC_init)
                  a662e2a0    000000bc     libc.a : _printfi.c.obj (.text._mcpy)
                  a662e35c    000000bc     ti.kernel.freertos.aer5f : tasks.oer5f (.text.xTaskCheckForTimeOut)
                  a662e418    000000b8     ipc.aer5f : ipc_osal.oer5f (.text.IpcOsalPrms_init)
                  a662e4d0    000000b8               : ipc_api.oer5f (.text.RPMessage_swiLinuxFxn)
                  a662e588    000000b8     ti.kernel.freertos.aer5f : tasks.oer5f (.text.prvAddCurrentTaskToDelayedList)
                  a662e640    000000b4     sciclient.aer5f : sciclient_rm_irq.oer5f (.text.Sciclient_rmIrOutpIsFree)
                  a662e6f4    000000b4     ti.kernel.freertos.aer5f : tasks.oer5f (.text.eTaskGetState)
                  a662e7a8    000000b0     ipc.aer5f : ipc_utils.oer5f (.text.IpcUtils_HeapCreate)
                  a662e858    000000b0     ti.kernel.freertos.aer5f : tasks.oer5f (.text.xTaskRemoveFromEventList)
                  a662e908    000000ac     libc.a : copy_decompress_lzss.c.obj (.text:decompress:lzss)
                  a662e9b4    000000a8     ti.kernel.freertos.aer5f : port_Hwi.oer5f (.text.Intc_IntRegister)
                  a662ea5c    000000a4     ipc_trace.oer5f (.text.Ipc_Trace_printf)
                  a662eb00    000000a4     ti.csl.aer5f : timer.oer5f (.text.TIMERModeConfigure)
                  a662eba4    000000a4     ti.kernel.freertos.aer5f : queue.oer5f (.text.prvUnlockQueue)
                  a662ec48    000000a4                              : timers.oer5f (.text.xTimerCreateTimerTask)
                  a662ecec    000000a0                              : queue.oer5f (.text.xQueueGenericReset)
                  a662ed8c    000000a0     libsysbm.a : memset32.S.obj (.text:memset)
                  a662ee2c    0000009c     ti.csl.aer5f : csl_vim.oer5f (.text.CSL_vimCfgIntr)
                  a662eec8    0000009c     sciclient.aer5f : sciclient_rm.oer5f (.text.Sciclient_rmGetResourceRange)
                  a662ef64    0000009c     ipc.aer5f : ipc_utils.oer5f (.text.SystemP_printf)
                  a662f000    00000098               : ipc_api.oer5f (.text.RPMessage_swiFxn)
                  a662f098    00000098     ti.kernel.freertos.aer5f : timers.oer5f (.text.xTimerGenericCommand)
                  a662f130    00000094     sciclient.aer5f : sciclient_rm_irq.oer5f (.text.Sciclient_rmIrqCfgIsEventToVintMappingOnly)
                  a662f1c4    0000008c     ipc.aer5f : ipc_mp.oer5f (.text.Ipc_mpSetConfig)
                  a662f250    0000008c     sciclient.aer5f : sciclient_rm_irq.oer5f (.text.Sciclient_rmIrqGetNode)
                  a662f2dc    0000008c                     : sciclient_rm.oer5f (.text.Sciclient_rmIrqReleaseRaw)
                  a662f368    0000008c                     : sciclient_rm.oer5f (.text.Sciclient_rmIrqSetRaw)
                  a662f3f4    0000008c     ti.osal.aer5f : TimerP_nonos.oer5f (.text.TimerP_stop)
                  a662f480    00000088     ipc.aer5f : ipc_virtio.oer5f (.text.Ipc_initVirtIO)
                  a662f508    00000088     libc.a : _ltoa.c.obj (.text.__TI_ltoa)
                  a662f590    00000088            : _printfi.c.obj (.text._ecpy)
                  a662f618    00000084     ti.osal.aer5f : RegisterIntr_nonos.oer5f (.text.Osal_RegisterInterrupt)
                  a662f69c    00000084     sciclient.aer5f : sciclient_rm_irq.oer5f (.text.Sciclient_rmPsPop)
                  a662f720    00000080                     : sciclient.oer5f (.text.Sciclient_abiCheck)
                  a662f7a0    00000080                     : sciclient.oer5f (.text.Sciclient_serviceGetPayloadSize)
                  a662f820    00000080     ipc.aer5f : ipc_virtio.oer5f (.text.Virtio_getAvailBuf)
                  a662f8a0    00000080     ti.kernel.freertos.aer5f : timers.oer5f (.text.prvCheckForValidListAndQueue)
                  a662f920    0000007c     ipc.aer5f : ipc_virtio.oer5f (.text.Virtio_addAvailBuf)
                  a662f99c    00000004     ti.osal.aer5f : HwiP_freertos.oer5f (.text.HwiP_disableInterrupt)
                  a662f9a0    0000007c     libc.a : s_frexp.c.obj (.text.frexp)
                  a662fa1c    00000078     ti.osal.aer5f : SemaphoreP_freertos.oer5f (.text.SemaphoreP_pend)
                  a662fa94    00000078     ti.kernel.freertos.aer5f : tasks.oer5f (.text.prvIdleTask)
                  a662fb0c    00000078                              : heap_4.oer5f (.text.prvInsertBlockIntoFreeList)
                  a662fb84    00000074     ti.osal.aer5f : SemaphoreP_freertos.oer5f (.text.SemaphoreP_constructBinary)
                  a662fbf8    00000074     ipc.aer5f : ipc_virtio.oer5f (.text.VirtioIPC_getVirtQueues)
                  a662fc6c    00000074     libc.a : _printfi.c.obj (.text._pconv_f)
                  a662fce0    00000074            : snprintf.c.obj (.text.snprintf)
                  a662fd54    00000070     ipc.aer5f : ipc_virtio.oer5f (.text.Ipc_physToVirt)
                  a662fdc4    00000070               : ipc_virtio.oer5f (.text.Ipc_virtToPhys)
                  a662fe34    00000070               : ipc_osal.oer5f (.text.Mailbox_plugInterrupt)
                  a662fea4    0000006c     ti.csl.aer5f : interrupt.oer5f (.text.Intc_Init)
                  a662ff10    0000006c     ti.osal.aer5f : SemaphoreP_freertos.oer5f (.text.SemaphoreP_delete)
                  a662ff7c    0000006c     libc.a : atoi.c.obj (.text.atoi)
                  a662ffe8    0000006c     ti.kernel.freertos.aer5f : queue.oer5f (.text.xQueueCreateCountingSemaphoreStatic)
                  a6630054    00000068     ipc.aer5f : ipc_soc.oer5f (.text.Ipc_sciclientIrqSet)
                  a66300bc    00000068     ti.osal.aer5f : SemaphoreP_freertos.oer5f (.text.SemaphoreP_post)
                  a6630124    00000068     ti.kernel.freertos.aer5f : timers.oer5f (.text.prvInsertTimerInActiveList)
                  a663018c    00000064     ipc.aer5f : ipc_soc.oer5f (.text.Ipc_sciclientIrqRelease)
                  a66301f0    00000064               : ipc_api.oer5f (.text.RPMessage_checkForMessages)
                  a6630254    00000064     ti.kernel.freertos.aer5f : port.oer5f (.text.uxPortGetTimeInUsec)
                  a66302b8    00000064                              : tasks.oer5f (.text.vTaskDelay)
                  a663031c    00000064     libc.a : vsnprintf.c.obj (.text.vsnprintf)
                  a6630380    00000060     ipc.aer5f : ipc_mp.oer5f (.text.Ipc_mpGetName)
                  a66303e0    00000060     ti.osal.aer5f : LoadP_freertos.oer5f (.text.LoadP_addTask)
                  a6630440    00000060                   : TimerP_nonos.oer5f (.text.TimerP_Params_init)
                  a66304a0    00000060     main_rtos.oer5f (.text.main)
                  a6630500    00000060     ti.kernel.freertos.aer5f : queue.oer5f (.text.vQueueWaitForMessageRestricted)
                  a6630560    0000005c     ti.csl.aer5f : csl_vim.oer5f (.text.CSL_vimGetActivePendingIntr)
                  a66305bc    0000005c     ipc.aer5f : ipc_soc.oer5f (.text.Ipc_getMailboxInfoTx)
                  a6630618    0000005c     sciclient.aer5f : sciclient_rm_irq.oer5f (.text.Sciclient_rmIrqUnmappedVintRouteDelete)
                  a6630674    0000005c     ti.csl.aer5f : timer.oer5f (.text.TIMERReset)
                  a66306d0    0000005c     libc.a : autoinit.c.obj (.text:__TI_auto_init_nobinit_nopinit)
                  a663072c    00000058     ipc.aer5f : ipc_soc.oer5f (.text.Ipc_getMailboxInfoRx)
                  a6630784    00000058               : ipc_api.oer5f (.text.RPMessage_create)
                  a66307dc    00000058     ti.osal.aer5f : TimerP_default.oer5f (.text.TimerP_updateDefaultInfoTbl)
                  a6630834    00000058     ipc.aer5f : ipc_virtio.oer5f (.text.Virtio_getUsedBuf)
                  a663088c    00000058     libc.a : _printfi.c.obj (.text._fcpy)
                  a66308e4    00000058            : snprintf.c.obj (.text._outs)
                  a663093c    00000058            : vsnprintf.c.obj (.text._outs)
                  a6630994    00000058     ti.kernel.freertos.aer5f : list.oer5f (.text.vListInsert)
                  a66309ec    00000058                              : tasks.oer5f (.text.vTaskPlaceOnEventListRestricted)
                  a6630a44    00000054     ti.csl.aer5f : timer.oer5f (.text.TimerWaitForWrite)
                  a6630a98    00000050     sciclient.aer5f : sciclient.oer5f (.text.Sciclient_getCurrentContext)
                  a6630ae8    00000050     ti.kernel.freertos.aer5f : tasks.oer5f (.text.prvDeleteTCB)
                  a6630b38    0000004c     ipc.aer5f : ipc_utils.oer5f (.text.IpcUtils_HeapAlloc)
                  a6630b84    0000004c     sciclient.aer5f : sciclient_rm_irq.oer5f (.text.Sciclient_rmPsPush)
                  a6630bd0    0000004c     libc.a : sscanf.c.obj (.text.sscanf)
                  a6630c1c    0000004c     ti.kernel.freertos.aer5f : tasks.oer5f (.text.vTaskPlaceOnEventList)
                  a6630c68    00000048     ti.csl.aer5f : csl_vim.oer5f (.text.CSL_vimClrIntrPending)
                  a6630cb0    00000048                  : csl_vim.oer5f (.text.CSL_vimSetIntrEnable)
                  a6630cf8    00000048     ipc.aer5f : ipc_api.oer5f (.text.IpcInitPrms_init)
                  a6630d40    00000048               : ipc_virtio.oer5f (.text.Ipc_isRemoteReady)
                  a6630d88    00000048     sciclient.aer5f : sciclient_secureproxy.oer5f (.text.Sciclient_flush)
                  a6630dd0    00000048                     : sciclient_rm_irq.oer5f (.text.Sciclient_rmIaVintGetInfo)
                  a6630e18    00000048     ti.osal.aer5f : TimerP_nonos.oer5f (.text.TimerP_getTimerBaseAddr)
                  a6630e60    00000048     ipc.aer5f : ipc_virtio.oer5f (.text.Virtio_kick)
                  a6630ea8    00000048     main_rtos.oer5f (.text.ipc_initSciclient)
                  a6630ef0    00000048     libc.a : memccpy.c.obj (.text.memccpy)
                  a6630f38    00000048     ipc.aer5f : ipc_mp.oer5f (.text.strncpy)
                  a6630f80    00000048     ti.kernel.freertos.aer5f : port.oer5f (.text.vPortExitCritical)
                  a6630fc8    00000048     libc.a : vsprintf.c.obj (.text.vsprintf)
                  a6631010    00000044     ipc.aer5f : ipc_utils.oer5f (.text.IpcUtils_HeapFree)
                  a6631054    00000044               : ipc_soc.oer5f (.text.Ipc_getMailboxIntrRouterCfg)
                  a6631098    00000044               : ipc_virtio.oer5f (.text.Ipc_isRemoteVirtioCreated)
                  a66310dc    00000044               : ipc_mailbox.oer5f (.text.Ipc_mailboxEnableNewMsgInt)
                  a6631120    00000044     ti.osal.aer5f : RegisterIntr_nonos.oer5f (.text.Osal_RegisterInterrupt_initParams)
                  a6631164    00000044     ti.csl.aer5f : timer.oer5f (.text.TIMERCounterGet2)
                  a66311a8    00000044                  : timer.oer5f (.text.TIMERDisable)
                  a66311ec    00000044                  : timer.oer5f (.text.TIMEREnable)
                  a6631230    00000044                  : timer.oer5f (.text.TIMERReloadGet2)
                  a6631274    00000044     ti.osal.aer5f : TimerP_nonos.oer5f (.text.TimerP_dmTimerStub)
                  a66312b8    00000040                   : SemaphoreP_freertos.oer5f (.text.SemaphoreP_constructCounting)
                  a66312f8    00000040     ti.csl.aer5f : timer.oer5f (.text.TIMERCompareSet)
                  a6631338    00000040                  : timer.oer5f (.text.TIMERCounterSet)
                  a6631378    00000040                  : timer.oer5f (.text.TIMERReloadSet)
                  a66313b8    00000040     ipc.aer5f : ipc_virtio.oer5f (.text.Virtio_isr)
                  a66313f8    00000040               : ipc_api.oer5f (.text.strncpy)
                  a6631438    00000040     ti.kernel.freertos.aer5f : list.oer5f (.text.uxListRemove)
                  a6631478    00000040                              : port.oer5f (.text.vPortEnterCritical)
                  a66314b8    00000040                              : queue.oer5f (.text.vQueueDelete)
                  a66314f8    0000003c     ti.osal.aer5f : HwiP_freertos.oer5f (.text.HwiP_create)
                  a6631534    0000003c     ipc.aer5f : ipc_virtio.oer5f (.text.Ipc_allocVirtio)
                  a6631570    0000003c     ti.osal.aer5f : SemaphoreP_freertos.oer5f (.text.SemaphoreP_Params_init)
                  a66315ac    0000003c                   : TaskP_freertos.oer5f (.text.TaskP_getFreertosHandle)
                  a66315e8    0000003c     ipc.aer5f : ipc_virtio.oer5f (.text.Virtio_prime)
                  a6631624    0000003c     ti.kernel.freertos.aer5f : queue.oer5f (.text.vQueueUnregisterQueue)
                  a6631660    00000038     ti.csl.aer5f : csl_cache.oer5f (.text.CSL_armR5CacheInv)
                  a6631698    00000038                  : csl_vim.oer5f (.text.CSL_vimAckIntr)
                  a66316d0    00000038                  : csl_vim.oer5f (.text.CSL_vimGetIntrType)
                  a6631708    00000038     sciclient.aer5f : sciclient_rm_irq.oer5f (.text.Sciclient_rmIaGetInst)
                  a6631740    00000038                     : sciclient_rm_irq.oer5f (.text.Sciclient_rmIrGetInst)
                  a6631778    00000038                     : sciclient_secureproxy.oer5f (.text.Sciclient_waitThread)
                  a66317b0    00000038     ti.csl.aer5f : timer.oer5f (.text.TIMERPostedModeConfig)
                  a66317e8    00000038     ti.osal.aer5f : TaskP_freertos.oer5f (.text.TaskP_Function)
                  a6631820    00000038     ipc.aer5f : ipc_virtio.oer5f (.text.Virtio_addUsedBuf)
                  a6631858    00000038               : ipc_api.oer5f (.text.strncmp)
                  a6631890    00000038     ti.osal.aer5f : LoadP_freertos.oer5f (.text.vApplicationLoadHook)
                  a66318c8    00000034                   : HwiP_freertos.oer5f (.text.HwiP_restore)
                  a66318fc    00000034     ti.csl.aer5f : interrupt.oer5f (.text.Intc_IntClrPend)
                  a6631930    00000034     ipc.aer5f : ipc_utils.oer5f (.text.IpcUtils_Qput)
                  a6631964    00000034               : ipc_osal.oer5f (.text.Ipc_osalHIsrPost)
                  a6631998    00000034               : ipc_soc.oer5f (.text.Ipc_sciclientIrqTranslate)
                  a66319cc    00000034     ti.csl.aer5f : timer.oer5f (.text.TIMERReadModeConfig)
                  a6631a00    00000034     ti.osal.aer5f : TaskP_freertos.oer5f (.text.TaskP_Params_init)
                  a6631a34    00000034     ti.kernel.freertos.aer5f : queue.oer5f (.text.prvCopyDataFromQueue)
                  a6631a68    00000034                              : queue.oer5f (.text.prvInitialiseNewQueue)
                  a6631a9c    00000034                              : tasks.oer5f (.text.prvResetNextTaskUnblockTime)
                  a6631ad0    00000034                              : queue.oer5f (.text.vQueueAddToRegistry)
                  a6631b04    00000030     ti.osal.aer5f : HwiP_freertos.oer5f (.text.HwiP_disable)
                  a6631b34    00000030     ipc.aer5f : ipc_utils.oer5f (.text.IpcUtils_Qcreate)
                  a6631b64    00000030               : ipc_osal.oer5f (.text.Ipc_osalHIsrCreate)
                  a6631b94    00000030     ti.osal.aer5f : TimerP_nonos.oer5f (.text.TimerP_getCount)
                  a6631bc4    00000030                   : TimerP_nonos.oer5f (.text.TimerP_getReloadCount)
                  a6631bf4    00000030     libc.a : snprintf.c.obj (.text._outc)
                  a6631c24    00000030            : vsnprintf.c.obj (.text._outc)
                  a6631c54    00000030     ti.kernel.freertos.aer5f : list.oer5f (.text.vListInsertEnd)
                  a6631c84    0000002c     ti.csl.aer5f : interrupt.oer5f (.text.Intc_IntPrioritySet)
                  a6631cb0    0000002c     ipc.aer5f : ipc_utils.oer5f (.text.IpcUtils_QgetHead)
                  a6631cdc    0000002c     ti.osal.aer5f : Utils_freertos.oer5f (.text.Osal_delay)
                  a6631d08    0000002c                   : Utils_freertos.oer5f (.text.Osal_getThreadType)
                  a6631d34    0000002c     ipc.aer5f : ipc_api.oer5f (.text.RPMessageParams_init)
                  a6631d60    0000002c     sciclient.aer5f : sciclient.oer5f (.text.Sciclient_configPrmsInit)
                  a6631d8c    0000002c                     : sciclient_secureproxy.oer5f (.text.Sciclient_readThread32)
                  a6631db8    0000002c     libc.a : vsprintf.c.obj (.text._outs)
                  a6631de4    0000002c     ti.kernel.freertos.aer5f : port.oer5f (.text.vPortTimerTickHandler)
                  a6631e10    0000002c     libclang_rt.builtins.a : divsi3.S.obj (.text)
                  a6631e3c    00000028     ti.csl.aer5f : csl_r5.oer5f (.text.CSL_armR5GetCpuID)
                  a6631e64    00000028     ipc.aer5f : ipc_utils.oer5f (.text.IpcUtils_QgetHeadNode)
                  a6631e8c    00000028               : ipc_mp.oer5f (.text.Ipc_mpGetRemoteProcId)
                  a6631eb4    00000028     ti.csl.aer5f : timer.oer5f (.text.TIMERIntDisable)
                  a6631edc    00000028                  : timer.oer5f (.text.TIMERIntEnable)
                  a6631f04    00000028                  : timer.oer5f (.text.TIMERIntStatusClear)
                  a6631f2c    00000028     ti.osal.aer5f : TimerP_default.oer5f (.text.TimerP_mapId)
                  a6631f54    00000028     ipc.aer5f : ipc_virtio.oer5f (.text.Virtio_setCallback)
                  a6631f7c    00000028     ti.kernel.freertos.aer5f : tasks.oer5f (.text.pvTaskIncrementMutexHeldCount)
                  a6631fa4    00000028     libc.a : _printfi.c.obj (.text.strchr)
                  a6631fcc    00000028     ti.kernel.freertos.aer5f : port.oer5f (.text.vApplicationStackOverflowHook)
                  a6631ff4    00000028                              : tasks.oer5f (.text.xTaskGetSchedulerState)
                  a663201c    00000024     ti.csl.aer5f : interrupt.oer5f (.text.Intc_IntDisable)
                  a6632040    00000024                  : interrupt.oer5f (.text.Intc_IntEnable)
                  a6632064    00000024     ipc.aer5f : ipc_soc.oer5f (.text.Ipc_getCoreName)
                  a6632088    00000024               : ipc_osal.oer5f (.text.Ipc_osalMutexCreate)
                  a66320ac    00000024     sciclient.aer5f : sciclient_secureproxy.oer5f (.text.Sciclient_readThreadCount)
                  a66320d0    00000024                     : sciclient_secureproxy.oer5f (.text.Sciclient_verifyThread)
                  a66320f4    00000024     ipc.aer5f : ipc_virtio.oer5f (.text.Virtio_isRemoteLinux)
                  a6632118    00000024     ti.kernel.freertos.aer5f : queue.oer5f (.text.prvIsQueueEmpty)
                  a663213c    00000024                              : port.oer5f (.text.vApplicationGetIdleTaskMemory)
                  a6632160    00000024                              : port.oer5f (.text.vApplicationGetTimerTaskMemory)
                  a6632184    00000024                              : list.oer5f (.text.vListInitialise)
                  a66321a8    00000024     libclang_rt.builtins.a : aeabi_uldivmod.S.obj (.text)
                  a66321cc    00000020     ti.osal.aer5f : HwiP_freertos.oer5f (.text.HwiP_Params_init)
                  a66321ec    00000020     ipc.aer5f : ipc_utils.oer5f (.text.IpcUtils_Init)
                  a663220c    00000020     ti.csl.aer5f : mailbox.oer5f (.text.MailboxGetMessage)
                  a663222c    00000020     ti.osal.aer5f : Utils_freertos.oer5f (.text.Osal_DebugP_assert)
                  a663224c    00000020                   : DebugP_nonos.oer5f (.text.Osal_DebugP_assert_fcn)
                  a663226c    00000020     libc.a : args_main.c.obj (.text._args_main)
                  a663228c    00000020            : wcslen.c.obj (.text.wcslen)
                  a66322ac    00000020     ti.kernel.freertos.aer5f : tasks.oer5f (.text.xTaskGetTickCount)
                  a66322cc    0000001c     ipc.aer5f : ipc_utils.oer5f (.text.IpcUtils_Qremove)
                  a66322e8    0000001c               : ipc_soc.oer5f (.text.Ipc_getMailboxBaseAddr)
                  a6632304    0000001c               : ipc_mailbox.oer5f (.text.Ipc_mailboxModuleStartup)
                  a6632320    0000001c               : ipc_osal.oer5f (.text.Ipc_osalHIsrDelete)
                  a663233c    0000001c     ti.csl.aer5f : mailbox.oer5f (.text.MailboxGetRawNewMsgStatus)
                  a6632358    0000001c                  : mailbox.oer5f (.text.MailboxSendMessage)
                  a6632374    0000001c     ipc.aer5f : ipc_api.oer5f (.text.RPMessage_getRemoteEndPt)
                  a6632390    0000001c     libc.a : sscanf.c.obj (.text._inpchar)
                  a66323ac    0000001c     ti.kernel.freertos.aer5f : port.oer5f (.text.prvPorttimerTickIsr)
                  a66323c8    0000001c     ipc.aer5f : ipc_api.oer5f (.text.strlen)
                  a66323e4    0000001c     libc.a : _printfi.c.obj (.text.strlen)
                  a6632400    0000001c     ti.kernel.freertos.aer5f : tasks.oer5f (.text.vTaskInternalSetTimeOutState)
                  a663241c    0000001c     ipc.aer5f : ipc_api.oer5f (.text.virtio_callback)
                  a6632438    0000001c     libclang_rt.builtins.a : aeabi_memset.S.obj (.text)
                  a6632454    00000018     ti.csl.aer5f : interrupt.oer5f (.text.Intc_IntSetSrcType)
                  a663246c    00000018                  : interrupt.oer5f (.text.Intc_SystemDisable)
                  a6632484    00000018                  : interrupt.oer5f (.text.Intc_SystemEnable)
                  a663249c    00000018     ipc.aer5f : ipc_utils.oer5f (.text.IpcUtils_HeapDelete)
                  a66324b4    00000018     ti.csl.aer5f : mailbox.oer5f (.text.MailboxClrNewMsgStatus)
                  a66324cc    00000018                  : mailbox.oer5f (.text.MailboxDisableNewMsgInt)
                  a66324e4    00000018                  : mailbox.oer5f (.text.MailboxEnableNewMsgInt)
                  a66324fc    00000018     sciclient.aer5f : sciclient_secureproxy.oer5f (.text.Sciclient_threadStatusReg)
                  a6632514    00000018                     : sciclient.oer5f (.text.Sciclient_utilByteCopy)
                  a663252c    00000018     ti.kernel.freertos.aer5f : port.oer5f (.text._system_post_cinit)
                  a6632544    00000018                              : port.oer5f (.text.vPortYeildFromISR)
                  a663255c    00000018                              : tasks.oer5f (.text.vTaskEndScheduler)
                  a6632574    00000018                              : tasks.oer5f (.text.vTaskSuspendAll)
                  a663258c    00000018                              : port.oer5f (.text.xPortInIsrContext)
                  a66325a4    00000018     libc.a : copy_zero_init.c.obj (.text:decompress:ZI)
                  a66325bc    00000014     ti.csl.aer5f : csl_sec_proxy.oer5f (.text.CSL_secProxyGetDataAddr)
                  a66325d0    00000014     ipc.aer5f : ipc_utils.oer5f (.text.IpcUtils_Qdelete)
                  a66325e4    00000014               : ipc_utils.oer5f (.text.IpcUtils_QisEmpty)
                  a66325f8    00000014               : ipc_virtio.oer5f (.text.Ipc_loadResourceTable)
                  a663260c    00000014               : ipc_osal.oer5f (.text.Ipc_osalMutexLock)
                  a6632620    00000014     sciclient.aer5f : sciclient_rm_irq.oer5f (.text.Sciclient_rmIaIsIa)
                  a6632634    00000014                     : sciclient_rm_irq.oer5f (.text.Sciclient_rmIrIsIr)
                  a6632648    00000014                     : sciclient_rm.oer5f (.text.Sciclient_rmIrqRelease)
                  a663265c    00000014     ipc.aer5f : ipc_virtio.oer5f (.text.Virtio_getHandle)
                  a6632670    00000014     libc.a : vsprintf.c.obj (.text._outc)
                  a6632684    00000014     ipc.aer5f : ipc_virtio.oer5f (.text.mapPAtoVA)
                  a6632698    00000014     ti.osal.aer5f : Arch_util.oer5f (.text.osalArch_Init)
                  a66326ac    00000014     ti.kernel.freertos.aer5f : port.oer5f (.text.prvTaskExitError)
                  a66326c0    00000014                              : tasks.oer5f (.text.ulTaskGetIdleRunTimeCounter)
                  a66326d4    00000014                              : tasks.oer5f (.text.vTaskMissedYield)
                  a66326e8    00000014     libc.a : copy_decompress_none.c.obj (.text:decompress:none)
                  a66326fc    00000010     ti.csl.aer5f : csl_vim.oer5f (.text.CSL_vimGetFiqVectorAddress)
                  a663270c    00000010     ipc_testsetup.oer5f (.text.IpcTestPrint)
                  a663271c    00000010     ipc.aer5f : ipc_utils.oer5f (.text.IpcUtils_Qnext)
                  a663272c    00000010               : ipc_mp.oer5f (.text.Ipc_mpGetNumProcessors)
                  a663273c    00000010               : ipc_mp.oer5f (.text.Ipc_mpGetSelfId)
                  a663274c    00000010               : ipc_mp.oer5f (.text.Ipc_mpGetSelfName)
                  a663275c    00000010     libc.a : sscanf.c.obj (.text._uninpchar)
                  a663276c    00000010     main_rtos.oer5f (.text.taskFxn)
                  a663277c    00000010     ti.kernel.freertos.aer5f : port.oer5f (.text.vApplicationIdleHook)
                  a663278c    0000000c     ti.csl.aer5f : mailbox.oer5f (.text.MailboxGetMessageCount)
                  a6632798    0000000c     sciclient.aer5f : sciclient_indirect.oer5f (.text.Sciclient_service)
                  a66327a4    0000000c     ti.csl.aer5f : timer.oer5f (.text.TIMERIntStatusGet)
                  a66327b0    0000000c                  : timer.oer5f (.text.TIMERWritePostedStatusGet)
                  a66327bc    0000000c     ti.osal.aer5f : TimerP_default.oer5f (.text.TimerP_getDefaultFreqLo)
                  a66327c8    0000000c     libc.a : aeabi_portable.c.obj (.text.__aeabi_errno_addr)
                  a66327d4    0000000c     ipc.aer5f : ipc_api.oer5f (.text.getIpcObjInst)
                  a66327e0    0000000c     ti.kernel.freertos.aer5f : port.oer5f (.text.uiPortGetRunTimeCounterValue)
                  a66327ec    0000000c                              : list.oer5f (.text.vListInitialiseItem)
                  a66327f8    00000008     ipc.aer5f : ipc_virtio.oer5f (.text.Ipc_getVqObjMemoryRequiredPerCore)
                  a6632800    00000008               : ipc_osal.oer5f (.text.Ipc_osalHIsrGateCreate)
                  a6632808    00000008               : ipc_osal.oer5f (.text.Ipc_osalHIsrGateExit)
                  a6632810    00000008     ti.osal.aer5f : Arch_util.oer5f (.text.OsalArch_clearInterrupt)
                  a6632818    00000008                   : Arch_util.oer5f (.text.OsalArch_disableInterrupt)
                  a6632820    00000008                   : Arch_util.oer5f (.text.OsalArch_enableInterrupt)
                  a6632828    00000008                   : RegisterIntr_nonos.oer5f (.text.Osal_ClearInterrupt)
                  a6632830    00000008                   : RegisterIntr_nonos.oer5f (.text.Osal_DisableInterrupt)
                  a6632838    00000008                   : RegisterIntr_nonos.oer5f (.text.Osal_EnableInterrupt)
                  a6632840    00000008                   : TimerP_default.oer5f (.text.TimerP_getDefaultFreqHi)
                  a6632848    00000008     ipc.aer5f : ipc_virtio.oer5f (.text.Virtio_getProcId)
                  a6632850    00000008               : ipc_virtio.oer5f (.text.Virtio_isReady)
                  a6632858    00000008     libc.a : exit.c.obj (.text:abort)
                  a6632860    00000004     ti.osal.aer5f : HwiP_freertos.oer5f (.text.HwiP_enableInterrupt)
                  a6632864    00000004     ti.csl.aer5f : interrupt.oer5f (.text.Intc_SystemRestore)
                  a6632868    00000004     ipc.aer5f : ipc_osal.oer5f (.text.Ipc_osalHIsrGateDelete)
                  a663286c    00000004               : ipc_osal.oer5f (.text.Ipc_osalHIsrGateEnter)
                  a6632870    00000004               : ipc_osal.oer5f (.text.Ipc_osalMutexDelete)
                  a6632874    00000004               : ipc_osal.oer5f (.text.Ipc_osalMutexUnlock)
                  a6632878    00000004     ti.osal.aer5f : TaskP_freertos.oer5f (.text.OS_init)
                  a663287c    00000004                   : TaskP_freertos.oer5f (.text.OS_start)
                  a6632880    00000004                   : TaskP_freertos.oer5f (.text.OS_stop)
                  a6632884    00000004                   : Arch_util.oer5f (.text.OsalArch_globalDisableInterrupt)
                  a6632888    00000004                   : Arch_util.oer5f (.text.OsalArch_globalRestoreInterrupt)
                  a663288c    00000004     sciclient.aer5f : sciclient_rm.oer5f (.text.Sciclient_rmIrqSet)
                  a6632890    00000004                     : sciclient_rm.oer5f (.text.Sciclient_rmIrqTranslateIrOutput)
                  a6632894    00000004     ti.osal.aer5f : TaskP_freertos.oer5f (.text.TaskP_sleep)
                  a6632898    00000004     ti.kernel.freertos.aer5f : port.oer5f (.text.vPortConfigTimerForRunTimeStats)
                  a663289c    00000004                              : port.oer5f (.text.vPortEndScheduler)
                  a66328a0    00000004     libclang_rt.builtins.a : aeabi_div0.c.obj (.text.__aeabi_idiv0)
                  a66328a4    00000004     ti.kernel.freertos.aer5f : port.oer5f (.text.vPortValidateInterruptPriority)
                  a66328a8    00000004     libclang_rt.builtins.a : aeabi_memcpy.S.obj (.text)
                  a66328ac    00000004     --HOLE-- [fill = 00000000]
                  a66328b0    00000004                            : aeabi_div0.c.obj (.text.__aeabi_ldiv0)
                  a66328b4    00000008     ti.kernel.freertos.aer5f : portASM.oer5f (.tramp.vPortRestoreTaskContext.1)
                  a66328bc    00000004     --HOLE-- [fill = 00000000]

.sysmem    0    a66328c0    00008000     UNINITIALIZED
                  a66328c0    00000010     libc.a : memory.c.obj (.sysmem)
                  a66328d0    00007ff0     --HOLE--

.rodata    0    a663f200    000040f0     
                  a663f200    00001260     ipc.aer5f : ipc_soc.oer5f (.rodata.g_IPC_MailboxInfo)
                  a6640460    00000420     sciclient.aer5f : sciclient_fmwSecureProxyMap.oer5f (.rodata.gSciclientMap)
                  a6640880    000003a5     ipc.aer5f : ipc_api.oer5f (.rodata.str1.1)
                  a6640c25    000002c5     ipc_testsetup.oer5f (.rodata.str1.1)
                  a6640eea    00000002     --HOLE-- [fill = 00000000]
                  a6640eec    000002c0     r5f_mpu_j784s4_default.oer5f (.rodata.gCslR5MpuCfg)
                  a66411ac    00000294     sciclient.aer5f : sciclient_irq_rm.oer5f (.rodata.gRmIrqTree)
                  a6641440    0000012c     ipc.aer5f : ipc_virtio.oer5f (.rodata.str1.1)
                  a664156c    00000004     sciclient.aer5f : sciclient_irq_rm.oer5f (.rodata.gRmIrqTreeCount)
                  a6641570    00000101     libc.a : aeabi_ctype.S.obj (.rodata)
                  a6641671    000000e8     ti.osal.aer5f : TaskP_freertos.oer5f (.rodata.str1.1)
                  a6641759    000000be                   : TimerP_default.oer5f (.rodata.str1.1)
                  a6641817    00000001     --HOLE-- [fill = 00000000]
                  a6641818    00000080     libc.a : strtod.c.obj (.rodata.digits)
                  a6641898    0000007a     ti.kernel.freertos.aer5f : heap_4.oer5f (.rodata.str1.1)
                  a6641912    00000076                              : timers.oer5f (.rodata.str1.1)
                  a6641988    0000006d                              : tasks.oer5f (.rodata.str1.1)
                  a66419f5    00000068                              : queue.oer5f (.rodata.str1.1)
                  a6641a5d    00000060     ipc.aer5f : ipc_mailbox.oer5f (.rodata.str1.1)
                  a6641abd    00000055     ti.kernel.freertos.aer5f : port.oer5f (.rodata.str1.1)
                  a6641b12    00000049     ti.osal.aer5f : SemaphoreP_freertos.oer5f (.rodata.str1.1)
                  a6641b5b    00000001     --HOLE-- [fill = 00000000]
                  a6641b5c    00000004     sciclient.aer5f : sciclient_irq_rm.oer5f (.rodata.tisci_if_CODEC0)
                  a6641b60    00000048     libc.a : strtod.c.obj (.rodata.powerof10)
                  a6641ba8    00000040     sciclient.aer5f : sciclient_irq_rm.oer5f (.rodata.tisci_if_PCIE1)
                  a6641be8    0000003c                     : sciclient_irq_rm.oer5f (.rodata.tisci_if_GPIOMUX_INTRTR0)
                  a6641c24    00000038     main_rtos.oer5f (.rodata.str1.1)
                  a6641c5c    00000038     sciclient.aer5f : sciclient_irq_rm.oer5f (.rodata.tisci_if_NAVSS0_INTR_0)
                  a6641c94    00000038                     : sciclient_irq_rm.oer5f (.rodata.tisci_if_TIMESYNC_INTRTR0)
                  a6641ccc    00000033     ipc.aer5f : ipc_osal.oer5f (.rodata.str1.1)
                  a6641cff    00000001     --HOLE-- [fill = 00000000]
                  a6641d00    00000030               : ipc_soc.oer5f (.rodata.g_IPC_Mailbox_BasePhyAddr)
                  a6641d30    00000030     sciclient.aer5f : sciclient_irq_rm.oer5f (.rodata.tisci_if_WKUP_GPIOMUX_INTRTR0)
                  a6641d60    00000028     ipc.aer5f : ipc_soc.oer5f (.rodata..Lswitch.table.Ipc_setCoreEventId)
                  a6641d88    00000022     libc.a : _printfi.c.obj (.rodata.str1.1)
                  a6641daa    00000022     ti.osal.aer5f : TimerP_nonos.oer5f (.rodata.str1.1)
                  a6641dcc    00000020     sciclient.aer5f : sciclient_irq_rm.oer5f (.rodata.tisci_if_CMPEVENT_INTRTR0)
                  a6641dec    00000020                     : sciclient_irq_rm.oer5f (.rodata.tisci_if_MCU_SA3_SS0_INTAGGR_0)
                  a6641e0c    00000020                     : sciclient_irq_rm.oer5f (.rodata.tisci_if_NAVSS0)
                  a6641e2c    0000001c                     : sciclient_irq_rm.oer5f (.rodata.tisci_if_CPSW1)
                  a6641e48    00000018     ipc.aer5f : ipc_soc.oer5f (.rodata.map_src_id)
                  a6641e60    00000018     sciclient.aer5f : sciclient_irq_rm.oer5f (.rodata.tisci_if_DSS0)
                  a6641e78    00000018                     : sciclient_irq_rm.oer5f (.rodata.tisci_if_VUSR_DUAL0)
                  a6641e90    00000012     ipc.aer5f : ipc_soc.oer5f (.rodata.map_dst_id)
                  a6641ea2    00000012               : ipc_soc.oer5f (.rodata.req_subtype)
                  a6641eb4    00000012               : ipc_soc.oer5f (.rodata.req_type)
                  a6641ec6    00000002     --HOLE-- [fill = 00000000]
                  a6641ec8    00000010     ti.osal.aer5f : Arch_util.oer5f (.rodata.cst16)
                  a6641ed8    00000010     sciclient.aer5f : sciclient_irq_rm.oer5f (.rodata.tisci_if_DDR0)
                  a6641ee8    00000010                     : sciclient_irq_rm.oer5f (.rodata.tisci_if_DDR1)
                  a6641ef8    00000010                     : sciclient_irq_rm.oer5f (.rodata.tisci_if_MCU_CPSW0)
                  a6641f08    0000000d     libc.a : _scanfi.c.obj (.rodata.str1.1)
                  a6641f15    00000003     --HOLE-- [fill = 00000000]
                  a6641f18    0000000c     sciclient.aer5f : sciclient.oer5f (.rodata..L__const.Sciclient_init.semParams)
                  a6641f24    0000000c                     : sciclient_irq_rm.oer5f (.rodata.tisci_if_CSI_RX_IF0)
                  a6641f30    0000000c                     : sciclient_irq_rm.oer5f (.rodata.tisci_if_CSI_RX_IF1)
                  a6641f3c    0000000c                     : sciclient_irq_rm.oer5f (.rodata.tisci_if_MCU_NAVSS0_MCRC_0)
                  a6641f48    0000000c                     : sciclient_irq_rm.oer5f (.rodata.tisci_if_NAVSS0_MCRC_0)
                  a6641f54    0000000c                     : sciclient_irq_rm.oer5f (.rodata.tisci_if_USB0)
                  a6641f60    00000008     libc.a : _scanfi.c.obj (.rodata..L__const._sproc_float.special)
                  a6641f68    00000008     sciclient.aer5f : sciclient_irq_rm.oer5f (.rodata.CMPEVENT_INTRTR0_outp_0_3_to_COMPUTE_CLUSTER_J7AHP0_CLEC_0_soc_events_in_544_547)
                  a6641f70    00000008                     : sciclient_irq_rm.oer5f (.rodata.CMPEVENT_INTRTR0_outp_0_3_to_COMPUTE_CLUSTER_J7AHP0_GIC500SS_0_spi_544_547)
                  a6641f78    00000008                     : sciclient_irq_rm.oer5f (.rodata.CMPEVENT_INTRTR0_outp_12_15_to_NAVSS0_UDMASS_INTA_0_intaggr_levi_pend_108_111)
                  a6641f80    00000008                     : sciclient_irq_rm.oer5f (.rodata.CMPEVENT_INTRTR0_outp_4_7_to_MAIN2MCU_PLS_INTRTR0_in_96_99)
                  a6641f88    00000008                     : sciclient_irq_rm.oer5f (.rodata.CMPEVENT_INTRTR0_outp_8_11_to_R5FSS0_CORE0_intr_326_329)
                  a6641f90    00000008                     : sciclient_irq_rm.oer5f (.rodata.CMPEVENT_INTRTR0_outp_8_11_to_R5FSS0_CORE1_intr_326_329)
                  a6641f98    00000008                     : sciclient_irq_rm.oer5f (.rodata.CMPEVENT_INTRTR0_outp_8_11_to_R5FSS1_CORE0_intr_326_329)
                  a6641fa0    00000008                     : sciclient_irq_rm.oer5f (.rodata.CMPEVENT_INTRTR0_outp_8_11_to_R5FSS1_CORE1_intr_326_329)
                  a6641fa8    00000008                     : sciclient_irq_rm.oer5f (.rodata.CODEC0_vpu_wave521cl_intr_0_0_to_MAIN2MCU_LVL_INTRTR0_in_263_263)
                  a6641fb0    00000008                     : sciclient_irq_rm.oer5f (.rodata.CPSW1_cpts_comp_0_0_to_CMPEVENT_INTRTR0_in_11_11)
                  a6641fb8    00000008                     : sciclient_irq_rm.oer5f (.rodata.CPSW1_cpts_genf0_1_1_to_TIMESYNC_INTRTR0_in_18_18)
                  a6641fc0    00000008                     : sciclient_irq_rm.oer5f (.rodata.CPSW1_cpts_genf1_2_2_to_TIMESYNC_INTRTR0_in_19_19)
                  a6641fc8    00000008                     : sciclient_irq_rm.oer5f (.rodata.CPSW1_cpts_sync_3_3_to_TIMESYNC_INTRTR0_in_39_39)
                  a6641fd0    00000008                     : sciclient_irq_rm.oer5f (.rodata.CPSW1_evnt_pend_4_4_to_MAIN2MCU_LVL_INTRTR0_in_72_72)
                  a6641fd8    00000008                     : sciclient_irq_rm.oer5f (.rodata.CPSW1_mdio_pend_5_5_to_MAIN2MCU_LVL_INTRTR0_in_71_71)
                  a6641fe0    00000008                     : sciclient_irq_rm.oer5f (.rodata.CPSW1_stat_pend_6_6_to_MAIN2MCU_LVL_INTRTR0_in_70_70)
                  a6641fe8    00000008                     : sciclient_irq_rm.oer5f (.rodata.CSI_RX_IF0_csi_err_irq_0_0_to_MAIN2MCU_LVL_INTRTR0_in_255_255)
                  a6641ff0    00000008                     : sciclient_irq_rm.oer5f (.rodata.CSI_RX_IF0_csi_irq_1_1_to_MAIN2MCU_LVL_INTRTR0_in_254_254)
                  a6641ff8    00000008                     : sciclient_irq_rm.oer5f (.rodata.CSI_RX_IF0_csi_level_2_2_to_MAIN2MCU_LVL_INTRTR0_in_256_256)
                  a6642000    00000008                     : sciclient_irq_rm.oer5f (.rodata.CSI_RX_IF1_csi_err_irq_0_0_to_MAIN2MCU_LVL_INTRTR0_in_258_258)
                  a6642008    00000008                     : sciclient_irq_rm.oer5f (.rodata.CSI_RX_IF1_csi_irq_1_1_to_MAIN2MCU_LVL_INTRTR0_in_257_257)
                  a6642010    00000008                     : sciclient_irq_rm.oer5f (.rodata.CSI_RX_IF1_csi_level_2_2_to_MAIN2MCU_LVL_INTRTR0_in_259_259)
                  a6642018    00000008                     : sciclient_irq_rm.oer5f (.rodata.CSI_TX_IF_V2_0_csi_interrupt_0_0_to_MAIN2MCU_LVL_INTRTR0_in_250_250)
                  a6642020    00000008                     : sciclient_irq_rm.oer5f (.rodata.CSI_TX_IF_V2_0_csi_level_1_1_to_MAIN2MCU_LVL_INTRTR0_in_251_251)
                  a6642028    00000008                     : sciclient_irq_rm.oer5f (.rodata.CSI_TX_IF_V2_1_csi_interrupt_0_0_to_MAIN2MCU_LVL_INTRTR0_in_248_248)
                  a6642030    00000008                     : sciclient_irq_rm.oer5f (.rodata.CSI_TX_IF_V2_1_csi_level_1_1_to_MAIN2MCU_LVL_INTRTR0_in_249_249)
                  a6642038    00000008                     : sciclient_irq_rm.oer5f (.rodata.DCC0_intr_done_level_0_0_to_MAIN2MCU_LVL_INTRTR0_in_88_88)
                  a6642040    00000008                     : sciclient_irq_rm.oer5f (.rodata.DCC1_intr_done_level_0_0_to_MAIN2MCU_LVL_INTRTR0_in_89_89)
                  a6642048    00000008                     : sciclient_irq_rm.oer5f (.rodata.DCC2_intr_done_level_0_0_to_MAIN2MCU_LVL_INTRTR0_in_90_90)
                  a6642050    00000008                     : sciclient_irq_rm.oer5f (.rodata.DCC3_intr_done_level_0_0_to_MAIN2MCU_LVL_INTRTR0_in_91_91)
                  a6642058    00000008                     : sciclient_irq_rm.oer5f (.rodata.DCC4_intr_done_level_0_0_to_MAIN2MCU_LVL_INTRTR0_in_92_92)
                  a6642060    00000008                     : sciclient_irq_rm.oer5f (.rodata.DCC5_intr_done_level_0_0_to_MAIN2MCU_LVL_INTRTR0_in_93_93)
                  a6642068    00000008                     : sciclient_irq_rm.oer5f (.rodata.DCC6_intr_done_level_0_0_to_MAIN2MCU_LVL_INTRTR0_in_94_94)
                  a6642070    00000008                     : sciclient_irq_rm.oer5f (.rodata.DCC7_intr_done_level_0_0_to_MAIN2MCU_LVL_INTRTR0_in_95_95)
                  a6642078    00000008                     : sciclient_irq_rm.oer5f (.rodata.DCC8_intr_done_level_0_0_to_MAIN2MCU_LVL_INTRTR0_in_208_208)
                  a6642080    00000008                     : sciclient_irq_rm.oer5f (.rodata.DCC9_intr_done_level_0_0_to_MAIN2MCU_LVL_INTRTR0_in_209_209)
                  a6642088    00000008                     : sciclient_irq_rm.oer5f (.rodata.DDR0_ddrss_controller_0_0_to_MAIN2MCU_LVL_INTRTR0_in_10_10)
                  a6642090    00000008                     : sciclient_irq_rm.oer5f (.rodata.DDR0_ddrss_hs_phy_global_error_1_1_to_MAIN2MCU_LVL_INTRTR0_in_12_12)
                  a6642098    00000008                     : sciclient_irq_rm.oer5f (.rodata.DDR0_ddrss_pll_freq_change_req_2_2_to_MAIN2MCU_LVL_INTRTR0_in_9_9)
                  a66420a0    00000008                     : sciclient_irq_rm.oer5f (.rodata.DDR0_ddrss_v2a_other_err_lvl_3_3_to_MAIN2MCU_LVL_INTRTR0_in_11_11)
                  a66420a8    00000008                     : sciclient_irq_rm.oer5f (.rodata.DDR1_ddrss_controller_0_0_to_MAIN2MCU_LVL_INTRTR0_in_64_64)
                  a66420b0    00000008                     : sciclient_irq_rm.oer5f (.rodata.DDR1_ddrss_hs_phy_global_error_1_1_to_MAIN2MCU_LVL_INTRTR0_in_66_66)
                  a66420b8    00000008                     : sciclient_irq_rm.oer5f (.rodata.DDR1_ddrss_pll_freq_change_req_2_2_to_MAIN2MCU_LVL_INTRTR0_in_63_63)
                  a66420c0    00000008                     : sciclient_irq_rm.oer5f (.rodata.DDR1_ddrss_v2a_other_err_lvl_3_3_to_MAIN2MCU_LVL_INTRTR0_in_65_65)
                  a66420c8    00000008                     : sciclient_irq_rm.oer5f (.rodata.DMPAC0_INTD_0_system_intr_level_0_1_to_MAIN2MCU_LVL_INTRTR0_in_268_269)
                  a66420d0    00000008                     : sciclient_irq_rm.oer5f (.rodata.DSS0_dss_inst0_dispc_func_irq_proc0_0_0_to_MAIN2MCU_LVL_INTRTR0_in_226_226)
                  a66420d8    00000008                     : sciclient_irq_rm.oer5f (.rodata.DSS0_dss_inst0_dispc_func_irq_proc1_1_1_to_MAIN2MCU_LVL_INTRTR0_in_227_227)
                  a66420e0    00000008                     : sciclient_irq_rm.oer5f (.rodata.DSS0_dss_inst0_dispc_safety_error_irq_proc0_2_2_to_MAIN2MCU_LVL_INTRTR0_in_230_230)
                  a66420e8    00000008                     : sciclient_irq_rm.oer5f (.rodata.DSS0_dss_inst0_dispc_safety_error_irq_proc1_3_3_to_MAIN2MCU_LVL_INTRTR0_in_231_231)
                  a66420f0    00000008                     : sciclient_irq_rm.oer5f (.rodata.DSS0_dss_inst0_dispc_secure_irq_proc0_4_4_to_MAIN2MCU_LVL_INTRTR0_in_228_228)
                  a66420f8    00000008                     : sciclient_irq_rm.oer5f (.rodata.DSS0_dss_inst0_dispc_secure_irq_proc1_5_5_to_MAIN2MCU_LVL_INTRTR0_in_229_229)
                  a6642100    00000008                     : sciclient_irq_rm.oer5f (.rodata.DSS_DSI0_dsi_0_func_intr_0_0_to_MAIN2MCU_LVL_INTRTR0_in_224_224)
                  a6642108    00000008                     : sciclient_irq_rm.oer5f (.rodata.DSS_DSI1_dsi_0_func_intr_0_0_to_MAIN2MCU_LVL_INTRTR0_in_225_225)
                  a6642110    00000008                     : sciclient_irq_rm.oer5f (.rodata.DSS_EDP0_intr_0_3_to_MAIN2MCU_LVL_INTRTR0_in_238_241)
                  a6642118    00000008                     : sciclient_irq_rm.oer5f (.rodata.ECAP0_ecap_int_0_0_to_MAIN2MCU_PLS_INTRTR0_in_17_17)
                  a6642120    00000008                     : sciclient_irq_rm.oer5f (.rodata.ECAP1_ecap_int_0_0_to_MAIN2MCU_PLS_INTRTR0_in_18_18)
                  a6642128    00000008                     : sciclient_irq_rm.oer5f (.rodata.ECAP2_ecap_int_0_0_to_MAIN2MCU_PLS_INTRTR0_in_19_19)
                  a6642130    00000008                     : sciclient_irq_rm.oer5f (.rodata.ELM0_elm_porocpsinterrupt_lvl_0_0_to_MAIN2MCU_LVL_INTRTR0_in_7_7)
                  a6642138    00000008                     : sciclient_irq_rm.oer5f (.rodata.EPWM0_epwm_etint_0_0_to_MAIN2MCU_PLS_INTRTR0_in_2_2)
                  a6642140    00000008                     : sciclient_irq_rm.oer5f (.rodata.EPWM0_epwm_tripzint_1_1_to_MAIN2MCU_PLS_INTRTR0_in_8_8)
                  a6642148    00000008                     : sciclient_irq_rm.oer5f (.rodata.EPWM1_epwm_etint_0_0_to_MAIN2MCU_PLS_INTRTR0_in_3_3)
                  a6642150    00000008                     : sciclient_irq_rm.oer5f (.rodata.EPWM1_epwm_tripzint_1_1_to_MAIN2MCU_PLS_INTRTR0_in_9_9)
                  a6642158    00000008                     : sciclient_irq_rm.oer5f (.rodata.EPWM2_epwm_etint_0_0_to_MAIN2MCU_PLS_INTRTR0_in_4_4)
                  a6642160    00000008                     : sciclient_irq_rm.oer5f (.rodata.EPWM2_epwm_tripzint_1_1_to_MAIN2MCU_PLS_INTRTR0_in_10_10)
                  a6642168    00000008                     : sciclient_irq_rm.oer5f (.rodata.EPWM3_epwm_etint_0_0_to_MAIN2MCU_PLS_INTRTR0_in_5_5)
                  a6642170    00000008                     : sciclient_irq_rm.oer5f (.rodata.EPWM3_epwm_tripzint_1_1_to_MAIN2MCU_PLS_INTRTR0_in_11_11)
                  a6642178    00000008                     : sciclient_irq_rm.oer5f (.rodata.EPWM4_epwm_etint_0_0_to_MAIN2MCU_PLS_INTRTR0_in_6_6)
                  a6642180    00000008                     : sciclient_irq_rm.oer5f (.rodata.EPWM4_epwm_tripzint_1_1_to_MAIN2MCU_PLS_INTRTR0_in_12_12)
                  a6642188    00000008                     : sciclient_irq_rm.oer5f (.rodata.EPWM5_epwm_etint_0_0_to_MAIN2MCU_PLS_INTRTR0_in_7_7)
                  a6642190    00000008                     : sciclient_irq_rm.oer5f (.rodata.EPWM5_epwm_tripzint_1_1_to_MAIN2MCU_PLS_INTRTR0_in_13_13)
                  a6642198    00000008                     : sciclient_irq_rm.oer5f (.rodata.EQEP0_eqep_int_0_0_to_MAIN2MCU_PLS_INTRTR0_in_14_14)
                  a66421a0    00000008                     : sciclient_irq_rm.oer5f (.rodata.EQEP1_eqep_int_0_0_to_MAIN2MCU_PLS_INTRTR0_in_15_15)
                  a66421a8    00000008                     : sciclient_irq_rm.oer5f (.rodata.EQEP2_eqep_int_0_0_to_MAIN2MCU_PLS_INTRTR0_in_16_16)
                  a66421b0    00000008                     : sciclient_irq_rm.oer5f (.rodata.GPIO0_gpio_bank_0_7_to_GPIOMUX_INTRTR0_in_145_152)
                  a66421b8    00000008                     : sciclient_irq_rm.oer5f (.rodata.GPIO2_gpio_bank_0_7_to_GPIOMUX_INTRTR0_in_154_161)
                  a66421c0    00000008                     : sciclient_irq_rm.oer5f (.rodata.GPIO4_gpio_bank_0_7_to_GPIOMUX_INTRTR0_in_163_170)
                  a66421c8    00000008                     : sciclient_irq_rm.oer5f (.rodata.GPIO6_gpio_bank_0_7_to_GPIOMUX_INTRTR0_in_172_179)
                  a66421d0    00000008                     : sciclient_irq_rm.oer5f (.rodata.GPIOMUX_INTRTR0_outp_0_15_to_R5FSS0_CORE0_intr_396_411)
                  a66421d8    00000008                     : sciclient_irq_rm.oer5f (.rodata.GPIOMUX_INTRTR0_outp_0_15_to_R5FSS0_CORE1_intr_396_411)
                  a66421e0    00000008                     : sciclient_irq_rm.oer5f (.rodata.GPIOMUX_INTRTR0_outp_0_15_to_R5FSS1_CORE0_intr_396_411)
                  a66421e8    00000008                     : sciclient_irq_rm.oer5f (.rodata.GPIOMUX_INTRTR0_outp_0_15_to_R5FSS1_CORE1_intr_396_411)
                  a66421f0    00000008                     : sciclient_irq_rm.oer5f (.rodata.GPIOMUX_INTRTR0_outp_0_31_to_MAIN2MCU_PLS_INTRTR0_in_64_95)
                  a66421f8    00000008                     : sciclient_irq_rm.oer5f (.rodata.GPIOMUX_INTRTR0_outp_0_7_to_ESM0_esm_pls_event0_664_671)
                  a6642200    00000008                     : sciclient_irq_rm.oer5f (.rodata.GPIOMUX_INTRTR0_outp_0_7_to_ESM0_esm_pls_event1_672_679)
                  a6642208    00000008                     : sciclient_irq_rm.oer5f (.rodata.GPIOMUX_INTRTR0_outp_0_7_to_ESM0_esm_pls_event2_680_687)
                  a6642210    00000008                     : sciclient_irq_rm.oer5f (.rodata.GPIOMUX_INTRTR0_outp_16_31_to_NAVSS0_UDMASS_INTA_0_intaggr_levi_pend_116_131)
                  a6642218    00000008                     : sciclient_irq_rm.oer5f (.rodata.GPIOMUX_INTRTR0_outp_16_31_to_R5FSS0_CORE0_intr_176_191)
                  a6642220    00000008                     : sciclient_irq_rm.oer5f (.rodata.GPIOMUX_INTRTR0_outp_16_31_to_R5FSS0_CORE1_intr_176_191)
                  a6642228    00000008                     : sciclient_irq_rm.oer5f (.rodata.GPIOMUX_INTRTR0_outp_16_31_to_R5FSS1_CORE0_intr_176_191)
                  a6642230    00000008                     : sciclient_irq_rm.oer5f (.rodata.GPIOMUX_INTRTR0_outp_16_31_to_R5FSS1_CORE1_intr_176_191)
                  a6642238    00000008                     : sciclient_irq_rm.oer5f (.rodata.GPIOMUX_INTRTR0_outp_8_63_to_COMPUTE_CLUSTER_J7AHP0_CLEC_0_soc_events_in_392_447)
                  a6642240    00000008                     : sciclient_irq_rm.oer5f (.rodata.GPIOMUX_INTRTR0_outp_8_63_to_COMPUTE_CLUSTER_J7AHP0_GIC500SS_0_spi_392_447)
                  a6642248    00000008                     : sciclient_irq_rm.oer5f (.rodata.GPMC0_gpmc_sinterrupt_0_0_to_MAIN2MCU_LVL_INTRTR0_in_8_8)
                  a6642250    00000008                     : sciclient_irq_rm.oer5f (.rodata.GTC0_gtc_push_event_0_0_to_TIMESYNC_INTRTR0_in_1_1)
                  a6642258    00000008                     : sciclient_irq_rm.oer5f (.rodata.I2C0_pointrpend_0_0_to_MAIN2MCU_LVL_INTRTR0_in_56_56)
                  a6642260    00000008                     : sciclient_irq_rm.oer5f (.rodata.I2C1_pointrpend_0_0_to_MAIN2MCU_LVL_INTRTR0_in_57_57)
                  a6642268    00000008                     : sciclient_irq_rm.oer5f (.rodata.I2C2_pointrpend_0_0_to_MAIN2MCU_LVL_INTRTR0_in_58_58)
                  a6642270    00000008                     : sciclient_irq_rm.oer5f (.rodata.I2C3_pointrpend_0_0_to_MAIN2MCU_LVL_INTRTR0_in_59_59)
                  a6642278    00000008                     : sciclient_irq_rm.oer5f (.rodata.I2C4_pointrpend_0_0_to_MAIN2MCU_LVL_INTRTR0_in_60_60)
                  a6642280    00000008                     : sciclient_irq_rm.oer5f (.rodata.I2C5_pointrpend_0_0_to_MAIN2MCU_LVL_INTRTR0_in_61_61)
                  a6642288    00000008                     : sciclient_irq_rm.oer5f (.rodata.I2C6_pointrpend_0_0_to_MAIN2MCU_LVL_INTRTR0_in_62_62)
                  a6642290    00000008                     : sciclient_irq_rm.oer5f (.rodata.J7AEP_GPU_BXS464_WRAP0_GPU_SS_0_os_irq_0_3_to_MAIN2MCU_LVL_INTRTR0_in_312_315)
                  a6642298    00000008                     : sciclient_irq_rm.oer5f (.rodata.J7AEP_GPU_BXS464_WRAP0_gpu_pwrctrl_req_0_0_to_MAIN2MCU_LVL_INTRTR0_in_316_316)
                  a66422a0    00000008                     : sciclient_irq_rm.oer5f (.rodata.MAIN2MCU_LVL_INTRTR0_outl_0_63_to_MCU_R5FSS0_CORE0_intr_160_223)
                  a66422a8    00000008                     : sciclient_irq_rm.oer5f (.rodata.MAIN2MCU_LVL_INTRTR0_outl_0_63_to_MCU_R5FSS0_CORE1_intr_160_223)
                  a66422b0    00000008                     : sciclient_irq_rm.oer5f (.rodata.MAIN2MCU_PLS_INTRTR0_outp_0_47_to_MCU_R5FSS0_CORE0_intr_224_271)
                  a66422b8    00000008                     : sciclient_irq_rm.oer5f (.rodata.MAIN2MCU_PLS_INTRTR0_outp_0_47_to_MCU_R5FSS0_CORE1_intr_224_271)
                  a66422c0    00000008                     : sciclient_irq_rm.oer5f (.rodata.MCAN0_mcanss_ext_ts_rollover_lvl_int_0_0_to_MAIN2MCU_LVL_INTRTR0_in_18_18)
                  a66422c8    00000008                     : sciclient_irq_rm.oer5f (.rodata.MCAN0_mcanss_mcan_lvl_int_1_2_to_MAIN2MCU_LVL_INTRTR0_in_16_17)
                  a66422d0    00000008                     : sciclient_irq_rm.oer5f (.rodata.MCAN10_mcanss_ext_ts_rollover_lvl_int_0_0_to_MAIN2MCU_LVL_INTRTR0_in_298_298)
                  a66422d8    00000008                     : sciclient_irq_rm.oer5f (.rodata.MCAN10_mcanss_mcan_lvl_int_1_2_to_MAIN2MCU_LVL_INTRTR0_in_296_297)
                  a66422e0    00000008                     : sciclient_irq_rm.oer5f (.rodata.MCAN11_mcanss_ext_ts_rollover_lvl_int_0_0_to_MAIN2MCU_LVL_INTRTR0_in_301_301)
                  a66422e8    00000008                     : sciclient_irq_rm.oer5f (.rodata.MCAN11_mcanss_mcan_lvl_int_1_2_to_MAIN2MCU_LVL_INTRTR0_in_299_300)
                  a66422f0    00000008                     : sciclient_irq_rm.oer5f (.rodata.MCAN12_mcanss_ext_ts_rollover_lvl_int_0_0_to_MAIN2MCU_LVL_INTRTR0_in_304_304)
                  a66422f8    00000008                     : sciclient_irq_rm.oer5f (.rodata.MCAN12_mcanss_mcan_lvl_int_1_2_to_MAIN2MCU_LVL_INTRTR0_in_302_303)
                  a6642300    00000008                     : sciclient_irq_rm.oer5f (.rodata.MCAN13_mcanss_ext_ts_rollover_lvl_int_0_0_to_MAIN2MCU_LVL_INTRTR0_in_307_307)
                  a6642308    00000008                     : sciclient_irq_rm.oer5f (.rodata.MCAN13_mcanss_mcan_lvl_int_1_2_to_MAIN2MCU_LVL_INTRTR0_in_305_306)
                  a6642310    00000008                     : sciclient_irq_rm.oer5f (.rodata.MCAN14_mcanss_ext_ts_rollover_lvl_int_0_0_to_MAIN2MCU_LVL_INTRTR0_in_162_162)
                  a6642318    00000008                     : sciclient_irq_rm.oer5f (.rodata.MCAN14_mcanss_mcan_lvl_int_1_2_to_MAIN2MCU_LVL_INTRTR0_in_160_161)
                  a6642320    00000008                     : sciclient_irq_rm.oer5f (.rodata.MCAN15_mcanss_ext_ts_rollover_lvl_int_0_0_to_MAIN2MCU_LVL_INTRTR0_in_165_165)
                  a6642328    00000008                     : sciclient_irq_rm.oer5f (.rodata.MCAN15_mcanss_mcan_lvl_int_1_2_to_MAIN2MCU_LVL_INTRTR0_in_163_164)
                  a6642330    00000008                     : sciclient_irq_rm.oer5f (.rodata.MCAN16_mcanss_ext_ts_rollover_lvl_int_0_0_to_MAIN2MCU_LVL_INTRTR0_in_172_172)
                  a6642338    00000008                     : sciclient_irq_rm.oer5f (.rodata.MCAN16_mcanss_mcan_lvl_int_1_2_to_MAIN2MCU_LVL_INTRTR0_in_170_171)
                  a6642340    00000008                     : sciclient_irq_rm.oer5f (.rodata.MCAN17_mcanss_ext_ts_rollover_lvl_int_0_0_to_MAIN2MCU_LVL_INTRTR0_in_175_175)
                  a6642348    00000008                     : sciclient_irq_rm.oer5f (.rodata.MCAN17_mcanss_mcan_lvl_int_1_2_to_MAIN2MCU_LVL_INTRTR0_in_173_174)
                  a6642350    00000008                     : sciclient_irq_rm.oer5f (.rodata.MCAN1_mcanss_ext_ts_rollover_lvl_int_0_0_to_MAIN2MCU_LVL_INTRTR0_in_21_21)
                  a6642358    00000008                     : sciclient_irq_rm.oer5f (.rodata.MCAN1_mcanss_mcan_lvl_int_1_2_to_MAIN2MCU_LVL_INTRTR0_in_19_20)
                  a6642360    00000008                     : sciclient_irq_rm.oer5f (.rodata.MCAN2_mcanss_ext_ts_rollover_lvl_int_0_0_to_MAIN2MCU_LVL_INTRTR0_in_24_24)
                  a6642368    00000008                     : sciclient_irq_rm.oer5f (.rodata.MCAN2_mcanss_mcan_lvl_int_1_2_to_MAIN2MCU_LVL_INTRTR0_in_22_23)
                  a6642370    00000008                     : sciclient_irq_rm.oer5f (.rodata.MCAN3_mcanss_ext_ts_rollover_lvl_int_0_0_to_MAIN2MCU_LVL_INTRTR0_in_27_27)
                  a6642378    00000008                     : sciclient_irq_rm.oer5f (.rodata.MCAN3_mcanss_mcan_lvl_int_1_2_to_MAIN2MCU_LVL_INTRTR0_in_25_26)
                  a6642380    00000008                     : sciclient_irq_rm.oer5f (.rodata.MCAN4_mcanss_ext_ts_rollover_lvl_int_0_0_to_MAIN2MCU_LVL_INTRTR0_in_280_280)
                  a6642388    00000008                     : sciclient_irq_rm.oer5f (.rodata.MCAN4_mcanss_mcan_lvl_int_1_2_to_MAIN2MCU_LVL_INTRTR0_in_278_279)
                  a6642390    00000008                     : sciclient_irq_rm.oer5f (.rodata.MCAN5_mcanss_ext_ts_rollover_lvl_int_0_0_to_MAIN2MCU_LVL_INTRTR0_in_283_283)
                  a6642398    00000008                     : sciclient_irq_rm.oer5f (.rodata.MCAN5_mcanss_mcan_lvl_int_1_2_to_MAIN2MCU_LVL_INTRTR0_in_281_282)
                  a66423a0    00000008                     : sciclient_irq_rm.oer5f (.rodata.MCAN6_mcanss_ext_ts_rollover_lvl_int_0_0_to_MAIN2MCU_LVL_INTRTR0_in_286_286)
                  a66423a8    00000008                     : sciclient_irq_rm.oer5f (.rodata.MCAN6_mcanss_mcan_lvl_int_1_2_to_MAIN2MCU_LVL_INTRTR0_in_284_285)
                  a66423b0    00000008                     : sciclient_irq_rm.oer5f (.rodata.MCAN7_mcanss_ext_ts_rollover_lvl_int_0_0_to_MAIN2MCU_LVL_INTRTR0_in_289_289)
                  a66423b8    00000008                     : sciclient_irq_rm.oer5f (.rodata.MCAN7_mcanss_mcan_lvl_int_1_2_to_MAIN2MCU_LVL_INTRTR0_in_287_288)
                  a66423c0    00000008                     : sciclient_irq_rm.oer5f (.rodata.MCAN8_mcanss_ext_ts_rollover_lvl_int_0_0_to_MAIN2MCU_LVL_INTRTR0_in_292_292)
                  a66423c8    00000008                     : sciclient_irq_rm.oer5f (.rodata.MCAN8_mcanss_mcan_lvl_int_1_2_to_MAIN2MCU_LVL_INTRTR0_in_290_291)
                  a66423d0    00000008                     : sciclient_irq_rm.oer5f (.rodata.MCAN9_mcanss_ext_ts_rollover_lvl_int_0_0_to_MAIN2MCU_LVL_INTRTR0_in_295_295)
                  a66423d8    00000008                     : sciclient_irq_rm.oer5f (.rodata.MCAN9_mcanss_mcan_lvl_int_1_2_to_MAIN2MCU_LVL_INTRTR0_in_293_294)
                  a66423e0    00000008                     : sciclient_irq_rm.oer5f (.rodata.MCASP0_rec_intr_pend_0_0_to_MAIN2MCU_LVL_INTRTR0_in_177_177)
                  a66423e8    00000008                     : sciclient_irq_rm.oer5f (.rodata.MCASP0_xmit_intr_pend_1_1_to_MAIN2MCU_LVL_INTRTR0_in_176_176)
                  a66423f0    00000008                     : sciclient_irq_rm.oer5f (.rodata.MCASP1_rec_intr_pend_0_0_to_MAIN2MCU_LVL_INTRTR0_in_179_179)
                  a66423f8    00000008                     : sciclient_irq_rm.oer5f (.rodata.MCASP1_xmit_intr_pend_1_1_to_MAIN2MCU_LVL_INTRTR0_in_178_178)
                  a6642400    00000008                     : sciclient_irq_rm.oer5f (.rodata.MCASP2_rec_intr_pend_0_0_to_MAIN2MCU_LVL_INTRTR0_in_181_181)
                  a6642408    00000008                     : sciclient_irq_rm.oer5f (.rodata.MCASP2_xmit_intr_pend_1_1_to_MAIN2MCU_LVL_INTRTR0_in_180_180)
                  a6642410    00000008                     : sciclient_irq_rm.oer5f (.rodata.MCASP3_rec_intr_pend_0_0_to_MAIN2MCU_LVL_INTRTR0_in_183_183)
                  a6642418    00000008                     : sciclient_irq_rm.oer5f (.rodata.MCASP3_xmit_intr_pend_1_1_to_MAIN2MCU_LVL_INTRTR0_in_182_182)
                  a6642420    00000008                     : sciclient_irq_rm.oer5f (.rodata.MCASP4_rec_intr_pend_0_0_to_MAIN2MCU_LVL_INTRTR0_in_185_185)
                  a6642428    00000008                     : sciclient_irq_rm.oer5f (.rodata.MCASP4_xmit_intr_pend_1_1_to_MAIN2MCU_LVL_INTRTR0_in_184_184)
                  a6642430    00000008                     : sciclient_irq_rm.oer5f (.rodata.MCSPI0_intr_spi_0_0_to_MAIN2MCU_LVL_INTRTR0_in_48_48)
                  a6642438    00000008                     : sciclient_irq_rm.oer5f (.rodata.MCSPI1_intr_spi_0_0_to_MAIN2MCU_LVL_INTRTR0_in_49_49)
                  a6642440    00000008                     : sciclient_irq_rm.oer5f (.rodata.MCSPI2_intr_spi_0_0_to_MAIN2MCU_LVL_INTRTR0_in_50_50)
                  a6642448    00000008                     : sciclient_irq_rm.oer5f (.rodata.MCSPI3_intr_spi_0_0_to_MAIN2MCU_LVL_INTRTR0_in_51_51)
                  a6642450    00000008                     : sciclient_irq_rm.oer5f (.rodata.MCSPI4_intr_spi_0_0_to_MAIN2MCU_LVL_INTRTR0_in_52_52)
                  a6642458    00000008                     : sciclient_irq_rm.oer5f (.rodata.MCSPI5_intr_spi_0_0_to_MAIN2MCU_LVL_INTRTR0_in_53_53)
                  a6642460    00000008                     : sciclient_irq_rm.oer5f (.rodata.MCSPI6_intr_spi_0_0_to_MAIN2MCU_LVL_INTRTR0_in_54_54)
                  a6642468    00000008                     : sciclient_irq_rm.oer5f (.rodata.MCSPI7_intr_spi_0_0_to_MAIN2MCU_LVL_INTRTR0_in_55_55)
                  a6642470    00000008                     : sciclient_irq_rm.oer5f (.rodata.MCU_CPSW0_cpts_comp_0_0_to_CMPEVENT_INTRTR0_in_10_10)
                  a6642478    00000008                     : sciclient_irq_rm.oer5f (.rodata.MCU_CPSW0_cpts_genf0_1_1_to_TIMESYNC_INTRTR0_in_16_16)
                  a6642480    00000008                     : sciclient_irq_rm.oer5f (.rodata.MCU_CPSW0_cpts_genf1_2_2_to_TIMESYNC_INTRTR0_in_17_17)
                  a6642488    00000008                     : sciclient_irq_rm.oer5f (.rodata.MCU_CPSW0_cpts_sync_3_3_to_TIMESYNC_INTRTR0_in_38_38)
                  a6642490    00000008                     : sciclient_irq_rm.oer5f (.rodata.MCU_NAVSS0_INTR_ROUTER_0_outl_intr_0_23_to_MCU_R5FSS0_CORE0_intr_64_87)
                  a6642498    00000008                     : sciclient_irq_rm.oer5f (.rodata.MCU_NAVSS0_INTR_ROUTER_0_outl_intr_32_55_to_MCU_R5FSS0_CORE1_intr_64_87)
                  a66424a0    00000008                     : sciclient_irq_rm.oer5f (.rodata.MCU_NAVSS0_MCRC_0_dma_event_intr_0_3_to_MCU_NAVSS0_INTR_ROUTER_0_in_intr_256_259)
                  a66424a8    00000008                     : sciclient_irq_rm.oer5f (.rodata.MCU_NAVSS0_MCRC_0_dma_event_intr_0_3_to_MCU_NAVSS0_UDMASS_INTA_0_intaggr_levi_pend_0_3)
                  a66424b0    00000008                     : sciclient_irq_rm.oer5f (.rodata.MCU_NAVSS0_MCRC_0_intaggr_vintr_pend_4_4_to_MCU_NAVSS0_INTR_ROUTER_0_in_intr_260_260)
                  a66424b8    00000008                     : sciclient_irq_rm.oer5f (.rodata.MCU_NAVSS0_UDMASS_INTA_0_intaggr_vintr_pend_0_255_to_MCU_NAVSS0_INTR_ROUTER_0_in_intr_0_255)
                  a66424c0    00000008                     : sciclient_irq_rm.oer5f (.rodata.MCU_SA3_SS0_INTAGGR_0_intaggr_vintr_0_7_to_COMPUTE_CLUSTER_J7AHP0_CLEC_0_soc_events_in_896_903)
                  a66424c8    00000008                     : sciclient_irq_rm.oer5f (.rodata.MCU_SA3_SS0_INTAGGR_0_intaggr_vintr_0_7_to_COMPUTE_CLUSTER_J7AHP0_GIC500SS_0_spi_896_903)
                  a66424d0    00000008                     : sciclient_irq_rm.oer5f (.rodata.MCU_SA3_SS0_INTAGGR_0_intaggr_vintr_0_7_to_MCU_R5FSS0_CORE0_intr_88_95)
                  a66424d8    00000008                     : sciclient_irq_rm.oer5f (.rodata.MCU_SA3_SS0_INTAGGR_0_intaggr_vintr_0_7_to_MCU_R5FSS0_CORE1_intr_88_95)
                  a66424e0    00000008                     : sciclient_irq_rm.oer5f (.rodata.MCU_SA3_SS0_INTAGGR_0_intaggr_vintr_2_3_to_R5FSS0_CORE0_intr_148_149)
                  a66424e8    00000008                     : sciclient_irq_rm.oer5f (.rodata.MCU_SA3_SS0_INTAGGR_0_intaggr_vintr_2_3_to_R5FSS0_CORE1_intr_148_149)
                  a66424f0    00000008                     : sciclient_irq_rm.oer5f (.rodata.MCU_SA3_SS0_INTAGGR_0_intaggr_vintr_4_5_to_R5FSS1_CORE0_intr_148_149)
                  a66424f8    00000008                     : sciclient_irq_rm.oer5f (.rodata.MCU_SA3_SS0_INTAGGR_0_intaggr_vintr_4_5_to_R5FSS1_CORE1_intr_148_149)
                  a6642500    00000008                     : sciclient_irq_rm.oer5f (.rodata.MMCSD0_emmcss_intr_0_0_to_MAIN2MCU_LVL_INTRTR0_in_28_28)
                  a6642508    00000008                     : sciclient_irq_rm.oer5f (.rodata.MMCSD1_emmcsdss_intr_0_0_to_MAIN2MCU_LVL_INTRTR0_in_29_29)
                  a6642510    00000008                     : sciclient_irq_rm.oer5f (.rodata.NAVSS0_CPTS_0_event_pend_intr_0_0_to_NAVSS0_INTR_0_in_intr_391_391)
                  a6642518    00000008                     : sciclient_irq_rm.oer5f (.rodata.NAVSS0_INTR_0_outl_intr_0_63_to_COMPUTE_CLUSTER_J7AHP0_CLEC_0_soc_events_in_64_127)
                  a6642520    00000008                     : sciclient_irq_rm.oer5f (.rodata.NAVSS0_INTR_0_outl_intr_0_63_to_COMPUTE_CLUSTER_J7AHP0_GIC500SS_0_spi_64_127)
                  a6642528    00000008                     : sciclient_irq_rm.oer5f (.rodata.NAVSS0_INTR_0_outl_intr_128_191_to_COMPUTE_CLUSTER_J7AHP0_CLEC_0_soc_events_in_672_735)
                  a6642530    00000008                     : sciclient_irq_rm.oer5f (.rodata.NAVSS0_INTR_0_outl_intr_128_191_to_COMPUTE_CLUSTER_J7AHP0_GIC500SS_0_spi_672_735)
                  a6642538    00000008                     : sciclient_irq_rm.oer5f (.rodata.NAVSS0_INTR_0_outl_intr_192_223_to_R5FSS0_CORE0_intr_224_255)
                  a6642540    00000008                     : sciclient_irq_rm.oer5f (.rodata.NAVSS0_INTR_0_outl_intr_224_255_to_R5FSS0_CORE1_intr_224_255)
                  a6642548    00000008                     : sciclient_irq_rm.oer5f (.rodata.NAVSS0_INTR_0_outl_intr_256_287_to_R5FSS1_CORE0_intr_224_255)
                  a6642550    00000008                     : sciclient_irq_rm.oer5f (.rodata.NAVSS0_INTR_0_outl_intr_288_319_to_R5FSS1_CORE1_intr_224_255)
                  a6642558    00000008                     : sciclient_irq_rm.oer5f (.rodata.NAVSS0_INTR_0_outl_intr_400_407_to_MCU_R5FSS0_CORE0_intr_376_383)
                  a6642560    00000008                     : sciclient_irq_rm.oer5f (.rodata.NAVSS0_INTR_0_outl_intr_400_407_to_MCU_R5FSS0_CORE1_intr_376_383)
                  a6642568    00000008                     : sciclient_irq_rm.oer5f (.rodata.NAVSS0_INTR_0_outl_intr_408_439_to_VUSR_DUAL0_v0_vusr_in_int_0_31)
                  a6642570    00000008                     : sciclient_irq_rm.oer5f (.rodata.NAVSS0_INTR_0_outl_intr_408_439_to_VUSR_DUAL0_v1_vusr_in_int_32_63)
                  a6642578    00000008                     : sciclient_irq_rm.oer5f (.rodata.NAVSS0_INTR_0_outl_intr_64_127_to_COMPUTE_CLUSTER_J7AHP0_CLEC_0_soc_events_in_448_511)
                  a6642580    00000008                     : sciclient_irq_rm.oer5f (.rodata.NAVSS0_INTR_0_outl_intr_64_127_to_COMPUTE_CLUSTER_J7AHP0_GIC500SS_0_spi_448_511)
                  a6642588    00000008                     : sciclient_irq_rm.oer5f (.rodata.NAVSS0_MAILBOX1_0_pend_intr_0_3_to_NAVSS0_INTR_0_in_intr_484_487)
                  a6642590    00000008                     : sciclient_irq_rm.oer5f (.rodata.NAVSS0_MAILBOX1_0_pend_intr_0_3_to_NAVSS0_UDMASS_INTA_0_intaggr_levi_pend_4_7)
                  a6642598    00000008                     : sciclient_irq_rm.oer5f (.rodata.NAVSS0_MAILBOX1_10_pend_intr_0_3_to_NAVSS0_INTR_0_in_intr_444_447)
                  a66425a0    00000008                     : sciclient_irq_rm.oer5f (.rodata.NAVSS0_MAILBOX1_10_pend_intr_0_3_to_NAVSS0_UDMASS_INTA_0_intaggr_levi_pend_44_47)
                  a66425a8    00000008                     : sciclient_irq_rm.oer5f (.rodata.NAVSS0_MAILBOX1_11_pend_intr_0_3_to_NAVSS0_INTR_0_in_intr_440_443)
                  a66425b0    00000008                     : sciclient_irq_rm.oer5f (.rodata.NAVSS0_MAILBOX1_11_pend_intr_0_3_to_NAVSS0_UDMASS_INTA_0_intaggr_levi_pend_48_51)
                  a66425b8    00000008                     : sciclient_irq_rm.oer5f (.rodata.NAVSS0_MAILBOX1_1_pend_intr_0_3_to_NAVSS0_INTR_0_in_intr_480_483)
                  a66425c0    00000008                     : sciclient_irq_rm.oer5f (.rodata.NAVSS0_MAILBOX1_1_pend_intr_0_3_to_NAVSS0_UDMASS_INTA_0_intaggr_levi_pend_8_11)
                  a66425c8    00000008                     : sciclient_irq_rm.oer5f (.rodata.NAVSS0_MAILBOX1_2_pend_intr_0_3_to_NAVSS0_INTR_0_in_intr_476_479)
                  a66425d0    00000008                     : sciclient_irq_rm.oer5f (.rodata.NAVSS0_MAILBOX1_2_pend_intr_0_3_to_NAVSS0_UDMASS_INTA_0_intaggr_levi_pend_12_15)
                  a66425d8    00000008                     : sciclient_irq_rm.oer5f (.rodata.NAVSS0_MAILBOX1_3_pend_intr_0_3_to_NAVSS0_INTR_0_in_intr_472_475)
                  a66425e0    00000008                     : sciclient_irq_rm.oer5f (.rodata.NAVSS0_MAILBOX1_3_pend_intr_0_3_to_NAVSS0_UDMASS_INTA_0_intaggr_levi_pend_16_19)
                  a66425e8    00000008                     : sciclient_irq_rm.oer5f (.rodata.NAVSS0_MAILBOX1_4_pend_intr_0_3_to_NAVSS0_INTR_0_in_intr_468_471)
                  a66425f0    00000008                     : sciclient_irq_rm.oer5f (.rodata.NAVSS0_MAILBOX1_4_pend_intr_0_3_to_NAVSS0_UDMASS_INTA_0_intaggr_levi_pend_20_23)
                  a66425f8    00000008                     : sciclient_irq_rm.oer5f (.rodata.NAVSS0_MAILBOX1_5_pend_intr_0_3_to_NAVSS0_INTR_0_in_intr_464_467)
                  a6642600    00000008                     : sciclient_irq_rm.oer5f (.rodata.NAVSS0_MAILBOX1_5_pend_intr_0_3_to_NAVSS0_UDMASS_INTA_0_intaggr_levi_pend_24_27)
                  a6642608    00000008                     : sciclient_irq_rm.oer5f (.rodata.NAVSS0_MAILBOX1_6_pend_intr_0_3_to_NAVSS0_INTR_0_in_intr_460_463)
                  a6642610    00000008                     : sciclient_irq_rm.oer5f (.rodata.NAVSS0_MAILBOX1_6_pend_intr_0_3_to_NAVSS0_UDMASS_INTA_0_intaggr_levi_pend_28_31)
                  a6642618    00000008                     : sciclient_irq_rm.oer5f (.rodata.NAVSS0_MAILBOX1_7_pend_intr_0_3_to_NAVSS0_INTR_0_in_intr_456_459)
                  a6642620    00000008                     : sciclient_irq_rm.oer5f (.rodata.NAVSS0_MAILBOX1_7_pend_intr_0_3_to_NAVSS0_UDMASS_INTA_0_intaggr_levi_pend_32_35)
                  a6642628    00000008                     : sciclient_irq_rm.oer5f (.rodata.NAVSS0_MAILBOX1_8_pend_intr_0_3_to_NAVSS0_INTR_0_in_intr_452_455)
                  a6642630    00000008                     : sciclient_irq_rm.oer5f (.rodata.NAVSS0_MAILBOX1_8_pend_intr_0_3_to_NAVSS0_UDMASS_INTA_0_intaggr_levi_pend_36_39)
                  a6642638    00000008                     : sciclient_irq_rm.oer5f (.rodata.NAVSS0_MAILBOX1_9_pend_intr_0_3_to_NAVSS0_INTR_0_in_intr_448_451)
                  a6642640    00000008                     : sciclient_irq_rm.oer5f (.rodata.NAVSS0_MAILBOX1_9_pend_intr_0_3_to_NAVSS0_UDMASS_INTA_0_intaggr_levi_pend_40_43)
                  a6642648    00000008                     : sciclient_irq_rm.oer5f (.rodata.NAVSS0_MAILBOX_0_pend_intr_0_3_to_NAVSS0_INTR_0_in_intr_436_439)
                  a6642650    00000008                     : sciclient_irq_rm.oer5f (.rodata.NAVSS0_MAILBOX_0_pend_intr_0_3_to_NAVSS0_UDMASS_INTA_0_intaggr_levi_pend_52_55)
                  a6642658    00000008                     : sciclient_irq_rm.oer5f (.rodata.NAVSS0_MAILBOX_10_pend_intr_0_3_to_NAVSS0_INTR_0_in_intr_396_399)
                  a6642660    00000008                     : sciclient_irq_rm.oer5f (.rodata.NAVSS0_MAILBOX_10_pend_intr_0_3_to_NAVSS0_UDMASS_INTA_0_intaggr_levi_pend_92_95)
                  a6642668    00000008                     : sciclient_irq_rm.oer5f (.rodata.NAVSS0_MAILBOX_11_pend_intr_0_3_to_NAVSS0_INTR_0_in_intr_392_395)
                  a6642670    00000008                     : sciclient_irq_rm.oer5f (.rodata.NAVSS0_MAILBOX_11_pend_intr_0_3_to_NAVSS0_UDMASS_INTA_0_intaggr_levi_pend_96_99)
                  a6642678    00000008                     : sciclient_irq_rm.oer5f (.rodata.NAVSS0_MAILBOX_1_pend_intr_0_3_to_NAVSS0_INTR_0_in_intr_432_435)
                  a6642680    00000008                     : sciclient_irq_rm.oer5f (.rodata.NAVSS0_MAILBOX_1_pend_intr_0_3_to_NAVSS0_UDMASS_INTA_0_intaggr_levi_pend_56_59)
                  a6642688    00000008                     : sciclient_irq_rm.oer5f (.rodata.NAVSS0_MAILBOX_2_pend_intr_0_3_to_NAVSS0_INTR_0_in_intr_428_431)
                  a6642690    00000008                     : sciclient_irq_rm.oer5f (.rodata.NAVSS0_MAILBOX_2_pend_intr_0_3_to_NAVSS0_UDMASS_INTA_0_intaggr_levi_pend_60_63)
                  a6642698    00000008                     : sciclient_irq_rm.oer5f (.rodata.NAVSS0_MAILBOX_3_pend_intr_0_3_to_NAVSS0_INTR_0_in_intr_424_427)
                  a66426a0    00000008                     : sciclient_irq_rm.oer5f (.rodata.NAVSS0_MAILBOX_3_pend_intr_0_3_to_NAVSS0_UDMASS_INTA_0_intaggr_levi_pend_64_67)
                  a66426a8    00000008                     : sciclient_irq_rm.oer5f (.rodata.NAVSS0_MAILBOX_4_pend_intr_0_3_to_NAVSS0_INTR_0_in_intr_420_423)
                  a66426b0    00000008                     : sciclient_irq_rm.oer5f (.rodata.NAVSS0_MAILBOX_4_pend_intr_0_3_to_NAVSS0_UDMASS_INTA_0_intaggr_levi_pend_68_71)
                  a66426b8    00000008                     : sciclient_irq_rm.oer5f (.rodata.NAVSS0_MAILBOX_5_pend_intr_0_3_to_NAVSS0_INTR_0_in_intr_416_419)
                  a66426c0    00000008                     : sciclient_irq_rm.oer5f (.rodata.NAVSS0_MAILBOX_5_pend_intr_0_3_to_NAVSS0_UDMASS_INTA_0_intaggr_levi_pend_72_75)
                  a66426c8    00000008                     : sciclient_irq_rm.oer5f (.rodata.NAVSS0_MAILBOX_6_pend_intr_0_3_to_NAVSS0_INTR_0_in_intr_412_415)
                  a66426d0    00000008                     : sciclient_irq_rm.oer5f (.rodata.NAVSS0_MAILBOX_6_pend_intr_0_3_to_NAVSS0_UDMASS_INTA_0_intaggr_levi_pend_76_79)
                  a66426d8    00000008                     : sciclient_irq_rm.oer5f (.rodata.NAVSS0_MAILBOX_7_pend_intr_0_3_to_NAVSS0_INTR_0_in_intr_408_411)
                  a66426e0    00000008                     : sciclient_irq_rm.oer5f (.rodata.NAVSS0_MAILBOX_7_pend_intr_0_3_to_NAVSS0_UDMASS_INTA_0_intaggr_levi_pend_80_83)
                  a66426e8    00000008                     : sciclient_irq_rm.oer5f (.rodata.NAVSS0_MAILBOX_8_pend_intr_0_3_to_NAVSS0_INTR_0_in_intr_404_407)
                  a66426f0    00000008                     : sciclient_irq_rm.oer5f (.rodata.NAVSS0_MAILBOX_8_pend_intr_0_3_to_NAVSS0_UDMASS_INTA_0_intaggr_levi_pend_84_87)
                  a66426f8    00000008                     : sciclient_irq_rm.oer5f (.rodata.NAVSS0_MAILBOX_9_pend_intr_0_3_to_NAVSS0_INTR_0_in_intr_400_403)
                  a6642700    00000008                     : sciclient_irq_rm.oer5f (.rodata.NAVSS0_MAILBOX_9_pend_intr_0_3_to_NAVSS0_UDMASS_INTA_0_intaggr_levi_pend_88_91)
                  a6642708    00000008                     : sciclient_irq_rm.oer5f (.rodata.NAVSS0_MCRC_0_dma_event_intr_0_3_to_NAVSS0_INTR_0_in_intr_384_387)
                  a6642710    00000008                     : sciclient_irq_rm.oer5f (.rodata.NAVSS0_MCRC_0_dma_event_intr_0_3_to_NAVSS0_UDMASS_INTA_0_intaggr_levi_pend_0_3)
                  a6642718    00000008                     : sciclient_irq_rm.oer5f (.rodata.NAVSS0_MCRC_0_intaggr_vintr_pend_4_4_to_NAVSS0_INTR_0_in_intr_388_388)
                  a6642720    00000008                     : sciclient_irq_rm.oer5f (.rodata.NAVSS0_MODSS_INTA_0_intaggr_vintr_pend_0_63_to_NAVSS0_INTR_0_in_intr_320_383)
                  a6642728    00000008                     : sciclient_irq_rm.oer5f (.rodata.NAVSS0_MODSS_INTA_1_intaggr_vintr_pend_0_63_to_NAVSS0_INTR_0_in_intr_256_319)
                  a6642730    00000008                     : sciclient_irq_rm.oer5f (.rodata.NAVSS0_PVU_0_exp_intr_0_0_to_NAVSS0_INTR_0_in_intr_489_489)
                  a6642738    00000008                     : sciclient_irq_rm.oer5f (.rodata.NAVSS0_PVU_1_exp_intr_0_0_to_NAVSS0_INTR_0_in_intr_488_488)
                  a6642740    00000008                     : sciclient_irq_rm.oer5f (.rodata.NAVSS0_UDMASS_INTA_0_intaggr_vintr_pend_0_255_to_NAVSS0_INTR_0_in_intr_0_255)
                  a6642748    00000008                     : sciclient_irq_rm.oer5f (.rodata.NAVSS0_cpts0_comp_0_0_to_CMPEVENT_INTRTR0_in_8_8)
                  a6642750    00000008                     : sciclient_irq_rm.oer5f (.rodata.NAVSS0_cpts0_genf0_1_1_to_TIMESYNC_INTRTR0_in_4_4)
                  a6642758    00000008                     : sciclient_irq_rm.oer5f (.rodata.NAVSS0_cpts0_genf1_2_2_to_TIMESYNC_INTRTR0_in_5_5)
                  a6642760    00000008                     : sciclient_irq_rm.oer5f (.rodata.NAVSS0_cpts0_genf2_3_3_to_TIMESYNC_INTRTR0_in_6_6)
                  a6642768    00000008                     : sciclient_irq_rm.oer5f (.rodata.NAVSS0_cpts0_genf3_4_4_to_TIMESYNC_INTRTR0_in_7_7)
                  a6642770    00000008                     : sciclient_irq_rm.oer5f (.rodata.NAVSS0_cpts0_genf4_5_5_to_TIMESYNC_INTRTR0_in_8_8)
                  a6642778    00000008                     : sciclient_irq_rm.oer5f (.rodata.NAVSS0_cpts0_genf5_6_6_to_TIMESYNC_INTRTR0_in_9_9)
                  a6642780    00000008                     : sciclient_irq_rm.oer5f (.rodata.NAVSS0_cpts0_sync_7_7_to_TIMESYNC_INTRTR0_in_36_36)
                  a6642788    00000008                     : sciclient_irq_rm.oer5f (.rodata.PCIE1_pcie_cpts_comp_0_0_to_CMPEVENT_INTRTR0_in_5_5)
                  a6642790    00000008                     : sciclient_irq_rm.oer5f (.rodata.PCIE1_pcie_cpts_genf0_1_1_to_TIMESYNC_INTRTR0_in_11_11)
                  a6642798    00000008                     : sciclient_irq_rm.oer5f (.rodata.PCIE1_pcie_cpts_hw1_push_2_2_to_TIMESYNC_INTRTR0_in_21_21)
                  a66427a0    00000008                     : sciclient_irq_rm.oer5f (.rodata.PCIE1_pcie_cpts_pend_3_3_to_MAIN2MCU_LVL_INTRTR0_in_75_75)
                  a66427a8    00000008                     : sciclient_irq_rm.oer5f (.rodata.PCIE1_pcie_cpts_sync_4_4_to_TIMESYNC_INTRTR0_in_33_33)
                  a66427b0    00000008                     : sciclient_irq_rm.oer5f (.rodata.PCIE1_pcie_downstream_pulse_5_5_to_MAIN2MCU_PLS_INTRTR0_in_41_41)
                  a66427b8    00000008                     : sciclient_irq_rm.oer5f (.rodata.PCIE1_pcie_dpa_pulse_6_6_to_MAIN2MCU_PLS_INTRTR0_in_21_21)
                  a66427c0    00000008                     : sciclient_irq_rm.oer5f (.rodata.PCIE1_pcie_error_pulse_7_7_to_MAIN2MCU_PLS_INTRTR0_in_43_43)
                  a66427c8    00000008                     : sciclient_irq_rm.oer5f (.rodata.PCIE1_pcie_flr_pulse_8_8_to_MAIN2MCU_PLS_INTRTR0_in_42_42)
                  a66427d0    00000008                     : sciclient_irq_rm.oer5f (.rodata.PCIE1_pcie_hot_reset_pulse_9_9_to_MAIN2MCU_PLS_INTRTR0_in_47_47)
                  a66427d8    00000008                     : sciclient_irq_rm.oer5f (.rodata.PCIE1_pcie_legacy_pulse_10_10_to_MAIN2MCU_PLS_INTRTR0_in_40_40)
                  a66427e0    00000008                     : sciclient_irq_rm.oer5f (.rodata.PCIE1_pcie_link_state_pulse_11_11_to_MAIN2MCU_PLS_INTRTR0_in_44_44)
                  a66427e8    00000008                     : sciclient_irq_rm.oer5f (.rodata.PCIE1_pcie_local_level_12_12_to_MAIN2MCU_LVL_INTRTR0_in_74_74)
                  a66427f0    00000008                     : sciclient_irq_rm.oer5f (.rodata.PCIE1_pcie_phy_level_13_13_to_MAIN2MCU_LVL_INTRTR0_in_73_73)
                  a66427f8    00000008                     : sciclient_irq_rm.oer5f (.rodata.PCIE1_pcie_ptm_valid_pulse_14_14_to_MAIN2MCU_PLS_INTRTR0_in_46_46)
                  a6642800    00000008                     : sciclient_irq_rm.oer5f (.rodata.PCIE1_pcie_pwr_state_pulse_15_15_to_MAIN2MCU_PLS_INTRTR0_in_45_45)
                  a6642808    00000008                     : sciclient_irq_rm.oer5f (.rodata.SA2_UL0_sa_ul_pka_0_0_to_MAIN2MCU_LVL_INTRTR0_in_5_5)
                  a6642810    00000008                     : sciclient_irq_rm.oer5f (.rodata.SA2_UL0_sa_ul_trng_1_1_to_MAIN2MCU_LVL_INTRTR0_in_4_4)
                  a6642818    00000008                     : sciclient_irq_rm.oer5f (.rodata.TIMER0_intr_pend_0_0_to_MAIN2MCU_LVL_INTRTR0_in_108_108)
                  a6642820    00000008                     : sciclient_irq_rm.oer5f (.rodata.TIMER10_intr_pend_0_0_to_MAIN2MCU_LVL_INTRTR0_in_118_118)
                  a6642828    00000008                     : sciclient_irq_rm.oer5f (.rodata.TIMER11_intr_pend_0_0_to_MAIN2MCU_LVL_INTRTR0_in_119_119)
                  a6642830    00000008                     : sciclient_irq_rm.oer5f (.rodata.TIMER12_intr_pend_0_0_to_MAIN2MCU_LVL_INTRTR0_in_120_120)
                  a6642838    00000008                     : sciclient_irq_rm.oer5f (.rodata.TIMER13_intr_pend_0_0_to_MAIN2MCU_LVL_INTRTR0_in_121_121)
                  a6642840    00000008                     : sciclient_irq_rm.oer5f (.rodata.TIMER14_intr_pend_0_0_to_MAIN2MCU_LVL_INTRTR0_in_122_122)
                  a6642848    00000008                     : sciclient_irq_rm.oer5f (.rodata.TIMER14_timer_pwm_1_1_to_TIMESYNC_INTRTR0_in_2_2)
                  a6642850    00000008                     : sciclient_irq_rm.oer5f (.rodata.TIMER15_intr_pend_0_0_to_MAIN2MCU_LVL_INTRTR0_in_123_123)
                  a6642858    00000008                     : sciclient_irq_rm.oer5f (.rodata.TIMER15_timer_pwm_1_1_to_TIMESYNC_INTRTR0_in_3_3)
                  a6642860    00000008                     : sciclient_irq_rm.oer5f (.rodata.TIMER16_intr_pend_0_0_to_MAIN2MCU_LVL_INTRTR0_in_124_124)
                  a6642868    00000008                     : sciclient_irq_rm.oer5f (.rodata.TIMER16_timer_pwm_1_1_to_TIMESYNC_INTRTR0_in_40_40)
                  a6642870    00000008                     : sciclient_irq_rm.oer5f (.rodata.TIMER17_intr_pend_0_0_to_MAIN2MCU_LVL_INTRTR0_in_125_125)
                  a6642878    00000008                     : sciclient_irq_rm.oer5f (.rodata.TIMER17_timer_pwm_1_1_to_TIMESYNC_INTRTR0_in_41_41)
                  a6642880    00000008                     : sciclient_irq_rm.oer5f (.rodata.TIMER18_intr_pend_0_0_to_MAIN2MCU_LVL_INTRTR0_in_126_126)
                  a6642888    00000008                     : sciclient_irq_rm.oer5f (.rodata.TIMER18_timer_pwm_1_1_to_TIMESYNC_INTRTR0_in_42_42)
                  a6642890    00000008                     : sciclient_irq_rm.oer5f (.rodata.TIMER19_intr_pend_0_0_to_MAIN2MCU_LVL_INTRTR0_in_127_127)
                  a6642898    00000008                     : sciclient_irq_rm.oer5f (.rodata.TIMER19_timer_pwm_1_1_to_TIMESYNC_INTRTR0_in_43_43)
                  a66428a0    00000008                     : sciclient_irq_rm.oer5f (.rodata.TIMER1_intr_pend_0_0_to_MAIN2MCU_LVL_INTRTR0_in_109_109)
                  a66428a8    00000008                     : sciclient_irq_rm.oer5f (.rodata.TIMER2_intr_pend_0_0_to_MAIN2MCU_LVL_INTRTR0_in_110_110)
                  a66428b0    00000008                     : sciclient_irq_rm.oer5f (.rodata.TIMER3_intr_pend_0_0_to_MAIN2MCU_LVL_INTRTR0_in_111_111)
                  a66428b8    00000008                     : sciclient_irq_rm.oer5f (.rodata.TIMER4_intr_pend_0_0_to_MAIN2MCU_LVL_INTRTR0_in_112_112)
                  a66428c0    00000008                     : sciclient_irq_rm.oer5f (.rodata.TIMER5_intr_pend_0_0_to_MAIN2MCU_LVL_INTRTR0_in_113_113)
                  a66428c8    00000008                     : sciclient_irq_rm.oer5f (.rodata.TIMER6_intr_pend_0_0_to_MAIN2MCU_LVL_INTRTR0_in_114_114)
                  a66428d0    00000008                     : sciclient_irq_rm.oer5f (.rodata.TIMER7_intr_pend_0_0_to_MAIN2MCU_LVL_INTRTR0_in_115_115)
                  a66428d8    00000008                     : sciclient_irq_rm.oer5f (.rodata.TIMER8_intr_pend_0_0_to_MAIN2MCU_LVL_INTRTR0_in_116_116)
                  a66428e0    00000008                     : sciclient_irq_rm.oer5f (.rodata.TIMER9_intr_pend_0_0_to_MAIN2MCU_LVL_INTRTR0_in_117_117)
                  a66428e8    00000008                     : sciclient_irq_rm.oer5f (.rodata.TIMESYNC_INTRTR0_outl_0_0_to_NAVSS0_cpts0_hw1_push_0_0)
                  a66428f0    00000008                     : sciclient_irq_rm.oer5f (.rodata.TIMESYNC_INTRTR0_outl_1_1_to_NAVSS0_cpts0_hw2_push_1_1)
                  a66428f8    00000008                     : sciclient_irq_rm.oer5f (.rodata.TIMESYNC_INTRTR0_outl_21_21_to_PCIE1_pcie_cpts_hw2_push_0_0)
                  a6642900    00000008                     : sciclient_irq_rm.oer5f (.rodata.TIMESYNC_INTRTR0_outl_24_24_to_MCU_CPSW0_cpts_hw3_push_0_0)
                  a6642908    00000008                     : sciclient_irq_rm.oer5f (.rodata.TIMESYNC_INTRTR0_outl_25_25_to_MCU_CPSW0_cpts_hw4_push_1_1)
                  a6642910    00000008                     : sciclient_irq_rm.oer5f (.rodata.TIMESYNC_INTRTR0_outl_2_2_to_NAVSS0_cpts0_hw3_push_2_2)
                  a6642918    00000008                     : sciclient_irq_rm.oer5f (.rodata.TIMESYNC_INTRTR0_outl_38_38_to_CPSW1_cpts_hw3_push_0_0)
                  a6642920    00000008                     : sciclient_irq_rm.oer5f (.rodata.TIMESYNC_INTRTR0_outl_39_39_to_CPSW1_cpts_hw4_push_1_1)
                  a6642928    00000008                     : sciclient_irq_rm.oer5f (.rodata.TIMESYNC_INTRTR0_outl_3_3_to_NAVSS0_cpts0_hw4_push_3_3)
                  a6642930    00000008                     : sciclient_irq_rm.oer5f (.rodata.TIMESYNC_INTRTR0_outl_40_47_to_NAVSS0_UDMASS_INTA_0_intaggr_levi_pend_100_107)
                  a6642938    00000008                     : sciclient_irq_rm.oer5f (.rodata.TIMESYNC_INTRTR0_outl_4_4_to_NAVSS0_cpts0_hw5_push_4_4)
                  a6642940    00000008                     : sciclient_irq_rm.oer5f (.rodata.TIMESYNC_INTRTR0_outl_5_5_to_NAVSS0_cpts0_hw6_push_5_5)
                  a6642948    00000008                     : sciclient_irq_rm.oer5f (.rodata.TIMESYNC_INTRTR0_outl_6_6_to_NAVSS0_cpts0_hw7_push_6_6)
                  a6642950    00000008                     : sciclient_irq_rm.oer5f (.rodata.TIMESYNC_INTRTR0_outl_7_7_to_NAVSS0_cpts0_hw8_push_7_7)
                  a6642958    00000008                     : sciclient_irq_rm.oer5f (.rodata.UART0_usart_irq_0_0_to_MAIN2MCU_LVL_INTRTR0_in_96_96)
                  a6642960    00000008                     : sciclient_irq_rm.oer5f (.rodata.UART1_usart_irq_0_0_to_MAIN2MCU_LVL_INTRTR0_in_97_97)
                  a6642968    00000008                     : sciclient_irq_rm.oer5f (.rodata.UART2_usart_irq_0_0_to_MAIN2MCU_LVL_INTRTR0_in_98_98)
                  a6642970    00000008                     : sciclient_irq_rm.oer5f (.rodata.UART3_usart_irq_0_0_to_MAIN2MCU_LVL_INTRTR0_in_99_99)
                  a6642978    00000008                     : sciclient_irq_rm.oer5f (.rodata.UART4_usart_irq_0_0_to_MAIN2MCU_LVL_INTRTR0_in_100_100)
                  a6642980    00000008                     : sciclient_irq_rm.oer5f (.rodata.UART5_usart_irq_0_0_to_MAIN2MCU_LVL_INTRTR0_in_101_101)
                  a6642988    00000008                     : sciclient_irq_rm.oer5f (.rodata.UART6_usart_irq_0_0_to_MAIN2MCU_LVL_INTRTR0_in_102_102)
                  a6642990    00000008                     : sciclient_irq_rm.oer5f (.rodata.UART7_usart_irq_0_0_to_MAIN2MCU_LVL_INTRTR0_in_103_103)
                  a6642998    00000008                     : sciclient_irq_rm.oer5f (.rodata.UART8_usart_irq_0_0_to_MAIN2MCU_LVL_INTRTR0_in_104_104)
                  a66429a0    00000008                     : sciclient_irq_rm.oer5f (.rodata.UART9_usart_irq_0_0_to_MAIN2MCU_LVL_INTRTR0_in_105_105)
                  a66429a8    00000008                     : sciclient_irq_rm.oer5f (.rodata.USB0_host_system_error_0_0_to_MAIN2MCU_LVL_INTRTR0_in_157_157)
                  a66429b0    00000008                     : sciclient_irq_rm.oer5f (.rodata.USB0_irq_1_8_to_MAIN2MCU_LVL_INTRTR0_in_128_135)
                  a66429b8    00000008                     : sciclient_irq_rm.oer5f (.rodata.USB0_otgirq_9_9_to_MAIN2MCU_LVL_INTRTR0_in_152_152)
                  a66429c0    00000008                     : sciclient_irq_rm.oer5f (.rodata.VPAC0_vpac_level_0_5_to_MAIN2MCU_LVL_INTRTR0_in_270_275)
                  a66429c8    00000008                     : sciclient_irq_rm.oer5f (.rodata.VUSR_DUAL0_v0_mcp_hi_intlvl_0_0_to_MAIN2MCU_LVL_INTRTR0_in_84_84)
                  a66429d0    00000008                     : sciclient_irq_rm.oer5f (.rodata.VUSR_DUAL0_v0_mcp_lo_intlvl_1_1_to_MAIN2MCU_LVL_INTRTR0_in_83_83)
                  a66429d8    00000008                     : sciclient_irq_rm.oer5f (.rodata.VUSR_DUAL0_v0_vusr_intlvl_2_2_to_MAIN2MCU_LVL_INTRTR0_in_82_82)
                  a66429e0    00000008                     : sciclient_irq_rm.oer5f (.rodata.VUSR_DUAL0_v1_mcp_hi_intlvl_3_3_to_MAIN2MCU_LVL_INTRTR0_in_87_87)
                  a66429e8    00000008                     : sciclient_irq_rm.oer5f (.rodata.VUSR_DUAL0_v1_mcp_lo_intlvl_4_4_to_MAIN2MCU_LVL_INTRTR0_in_86_86)
                  a66429f0    00000008                     : sciclient_irq_rm.oer5f (.rodata.VUSR_DUAL0_v1_vusr_intlvl_5_5_to_MAIN2MCU_LVL_INTRTR0_in_85_85)
                  a66429f8    00000008                     : sciclient_irq_rm.oer5f (.rodata.WKUP_GPIO0_gpio_bank_0_5_to_WKUP_GPIOMUX_INTRTR0_in_103_108)
                  a6642a00    00000008                     : sciclient_irq_rm.oer5f (.rodata.WKUP_GPIO1_gpio_bank_0_5_to_WKUP_GPIOMUX_INTRTR0_in_112_117)
                  a6642a08    00000008                     : sciclient_irq_rm.oer5f (.rodata.WKUP_GPIOMUX_INTRTR0_outp_0_15_to_MCU_R5FSS0_CORE0_intr_124_139)
                  a6642a10    00000008                     : sciclient_irq_rm.oer5f (.rodata.WKUP_GPIOMUX_INTRTR0_outp_0_15_to_MCU_R5FSS0_CORE1_intr_124_139)
                  a6642a18    00000008                     : sciclient_irq_rm.oer5f (.rodata.WKUP_GPIOMUX_INTRTR0_outp_12_19_to_MCU_NAVSS0_UDMASS_INTA_0_intaggr_levi_pend_4_11)
                  a6642a20    00000008                     : sciclient_irq_rm.oer5f (.rodata.WKUP_GPIOMUX_INTRTR0_outp_16_31_to_COMPUTE_CLUSTER_J7AHP0_CLEC_0_soc_events_in_960_975)
                  a6642a28    00000008                     : sciclient_irq_rm.oer5f (.rodata.WKUP_GPIOMUX_INTRTR0_outp_16_31_to_COMPUTE_CLUSTER_J7AHP0_GIC500SS_0_spi_960_975)
                  a6642a30    00000008                     : sciclient_irq_rm.oer5f (.rodata.WKUP_GPIOMUX_INTRTR0_outp_16_31_to_R5FSS0_CORE0_intr_488_503)
                  a6642a38    00000008                     : sciclient_irq_rm.oer5f (.rodata.WKUP_GPIOMUX_INTRTR0_outp_16_31_to_R5FSS0_CORE1_intr_488_503)
                  a6642a40    00000008                     : sciclient_irq_rm.oer5f (.rodata.WKUP_GPIOMUX_INTRTR0_outp_16_31_to_R5FSS1_CORE0_intr_488_503)
                  a6642a48    00000008                     : sciclient_irq_rm.oer5f (.rodata.WKUP_GPIOMUX_INTRTR0_outp_16_31_to_R5FSS1_CORE1_intr_488_503)
                  a6642a50    00000008                     : sciclient_irq_rm.oer5f (.rodata.WKUP_GPIOMUX_INTRTR0_outp_8_15_to_WKUP_ESM0_esm_pls_event0_120_127)
                  a6642a58    00000008                     : sciclient_irq_rm.oer5f (.rodata.WKUP_GPIOMUX_INTRTR0_outp_8_15_to_WKUP_ESM0_esm_pls_event1_128_135)
                  a6642a60    00000008                     : sciclient_irq_rm.oer5f (.rodata.WKUP_GPIOMUX_INTRTR0_outp_8_15_to_WKUP_ESM0_esm_pls_event2_136_143)
                  a6642a68    00000008                     : sciclient_irq_rm.oer5f (.rodata.tisci_if_CSI_TX_IF_V2_0)
                  a6642a70    00000008                     : sciclient_irq_rm.oer5f (.rodata.tisci_if_CSI_TX_IF_V2_1)
                  a6642a78    00000008                     : sciclient_irq_rm.oer5f (.rodata.tisci_if_EPWM0)
                  a6642a80    00000008                     : sciclient_irq_rm.oer5f (.rodata.tisci_if_EPWM1)
                  a6642a88    00000008                     : sciclient_irq_rm.oer5f (.rodata.tisci_if_EPWM2)
                  a6642a90    00000008                     : sciclient_irq_rm.oer5f (.rodata.tisci_if_EPWM3)
                  a6642a98    00000008                     : sciclient_irq_rm.oer5f (.rodata.tisci_if_EPWM4)
                  a6642aa0    00000008                     : sciclient_irq_rm.oer5f (.rodata.tisci_if_EPWM5)
                  a6642aa8    00000008                     : sciclient_irq_rm.oer5f (.rodata.tisci_if_MAIN2MCU_LVL_INTRTR0)
                  a6642ab0    00000008                     : sciclient_irq_rm.oer5f (.rodata.tisci_if_MAIN2MCU_PLS_INTRTR0)
                  a6642ab8    00000008                     : sciclient_irq_rm.oer5f (.rodata.tisci_if_MCAN0)
                  a6642ac0    00000008                     : sciclient_irq_rm.oer5f (.rodata.tisci_if_MCAN10)
                  a6642ac8    00000008                     : sciclient_irq_rm.oer5f (.rodata.tisci_if_MCAN11)
                  a6642ad0    00000008                     : sciclient_irq_rm.oer5f (.rodata.tisci_if_MCAN12)
                  a6642ad8    00000008                     : sciclient_irq_rm.oer5f (.rodata.tisci_if_MCAN13)
                  a6642ae0    00000008                     : sciclient_irq_rm.oer5f (.rodata.tisci_if_MCAN14)
                  a6642ae8    00000008                     : sciclient_irq_rm.oer5f (.rodata.tisci_if_MCAN15)
                  a6642af0    00000008                     : sciclient_irq_rm.oer5f (.rodata.tisci_if_MCAN16)
                  a6642af8    00000008                     : sciclient_irq_rm.oer5f (.rodata.tisci_if_MCAN17)
                  a6642b00    00000008                     : sciclient_irq_rm.oer5f (.rodata.tisci_if_MCAN1)
                  a6642b08    00000008                     : sciclient_irq_rm.oer5f (.rodata.tisci_if_MCAN2)
                  a6642b10    00000008                     : sciclient_irq_rm.oer5f (.rodata.tisci_if_MCAN3)
                  a6642b18    00000008                     : sciclient_irq_rm.oer5f (.rodata.tisci_if_MCAN4)
                  a6642b20    00000008                     : sciclient_irq_rm.oer5f (.rodata.tisci_if_MCAN5)
                  a6642b28    00000008                     : sciclient_irq_rm.oer5f (.rodata.tisci_if_MCAN6)
                  a6642b30    00000008                     : sciclient_irq_rm.oer5f (.rodata.tisci_if_MCAN7)
                  a6642b38    00000008                     : sciclient_irq_rm.oer5f (.rodata.tisci_if_MCAN8)
                  a6642b40    00000008                     : sciclient_irq_rm.oer5f (.rodata.tisci_if_MCAN9)
                  a6642b48    00000008                     : sciclient_irq_rm.oer5f (.rodata.tisci_if_MCASP0)
                  a6642b50    00000008                     : sciclient_irq_rm.oer5f (.rodata.tisci_if_MCASP1)
                  a6642b58    00000008                     : sciclient_irq_rm.oer5f (.rodata.tisci_if_MCASP2)
                  a6642b60    00000008                     : sciclient_irq_rm.oer5f (.rodata.tisci_if_MCASP3)
                  a6642b68    00000008                     : sciclient_irq_rm.oer5f (.rodata.tisci_if_MCASP4)
                  a6642b70    00000008                     : sciclient_irq_rm.oer5f (.rodata.tisci_if_MCU_NAVSS0_INTR_ROUTER_0)
                  a6642b78    00000008                     : sciclient_irq_rm.oer5f (.rodata.tisci_if_NAVSS0_MAILBOX1_0)
                  a6642b80    00000008                     : sciclient_irq_rm.oer5f (.rodata.tisci_if_NAVSS0_MAILBOX1_10)
                  a6642b88    00000008                     : sciclient_irq_rm.oer5f (.rodata.tisci_if_NAVSS0_MAILBOX1_11)
                  a6642b90    00000008                     : sciclient_irq_rm.oer5f (.rodata.tisci_if_NAVSS0_MAILBOX1_1)
                  a6642b98    00000008                     : sciclient_irq_rm.oer5f (.rodata.tisci_if_NAVSS0_MAILBOX1_2)
                  a6642ba0    00000008                     : sciclient_irq_rm.oer5f (.rodata.tisci_if_NAVSS0_MAILBOX1_3)
                  a6642ba8    00000008                     : sciclient_irq_rm.oer5f (.rodata.tisci_if_NAVSS0_MAILBOX1_4)
                  a6642bb0    00000008                     : sciclient_irq_rm.oer5f (.rodata.tisci_if_NAVSS0_MAILBOX1_5)
                  a6642bb8    00000008                     : sciclient_irq_rm.oer5f (.rodata.tisci_if_NAVSS0_MAILBOX1_6)
                  a6642bc0    00000008                     : sciclient_irq_rm.oer5f (.rodata.tisci_if_NAVSS0_MAILBOX1_7)
                  a6642bc8    00000008                     : sciclient_irq_rm.oer5f (.rodata.tisci_if_NAVSS0_MAILBOX1_8)
                  a6642bd0    00000008                     : sciclient_irq_rm.oer5f (.rodata.tisci_if_NAVSS0_MAILBOX1_9)
                  a6642bd8    00000008                     : sciclient_irq_rm.oer5f (.rodata.tisci_if_NAVSS0_MAILBOX_0)
                  a6642be0    00000008                     : sciclient_irq_rm.oer5f (.rodata.tisci_if_NAVSS0_MAILBOX_10)
                  a6642be8    00000008                     : sciclient_irq_rm.oer5f (.rodata.tisci_if_NAVSS0_MAILBOX_11)
                  a6642bf0    00000008                     : sciclient_irq_rm.oer5f (.rodata.tisci_if_NAVSS0_MAILBOX_1)
                  a6642bf8    00000008                     : sciclient_irq_rm.oer5f (.rodata.tisci_if_NAVSS0_MAILBOX_2)
                  a6642c00    00000008                     : sciclient_irq_rm.oer5f (.rodata.tisci_if_NAVSS0_MAILBOX_3)
                  a6642c08    00000008                     : sciclient_irq_rm.oer5f (.rodata.tisci_if_NAVSS0_MAILBOX_4)
                  a6642c10    00000008                     : sciclient_irq_rm.oer5f (.rodata.tisci_if_NAVSS0_MAILBOX_5)
                  a6642c18    00000008                     : sciclient_irq_rm.oer5f (.rodata.tisci_if_NAVSS0_MAILBOX_6)
                  a6642c20    00000008                     : sciclient_irq_rm.oer5f (.rodata.tisci_if_NAVSS0_MAILBOX_7)
                  a6642c28    00000008                     : sciclient_irq_rm.oer5f (.rodata.tisci_if_NAVSS0_MAILBOX_8)
                  a6642c30    00000008                     : sciclient_irq_rm.oer5f (.rodata.tisci_if_NAVSS0_MAILBOX_9)
                  a6642c38    00000008                     : sciclient_irq_rm.oer5f (.rodata.tisci_if_SA2_UL0)
                  a6642c40    00000008                     : sciclient_irq_rm.oer5f (.rodata.tisci_if_TIMER14)
                  a6642c48    00000008                     : sciclient_irq_rm.oer5f (.rodata.tisci_if_TIMER15)
                  a6642c50    00000008                     : sciclient_irq_rm.oer5f (.rodata.tisci_if_TIMER16)
                  a6642c58    00000008                     : sciclient_irq_rm.oer5f (.rodata.tisci_if_TIMER17)
                  a6642c60    00000008                     : sciclient_irq_rm.oer5f (.rodata.tisci_if_TIMER18)
                  a6642c68    00000008                     : sciclient_irq_rm.oer5f (.rodata.tisci_if_TIMER19)
                  a6642c70    00000008                     : sciclient_irq_rm.oer5f (.rodata.tisci_irq_CMPEVENT_INTRTR0)
                  a6642c78    00000008                     : sciclient_irq_rm.oer5f (.rodata.tisci_irq_CODEC0)
                  a6642c80    00000008                     : sciclient_irq_rm.oer5f (.rodata.tisci_irq_CPSW1)
                  a6642c88    00000008                     : sciclient_irq_rm.oer5f (.rodata.tisci_irq_CSI_RX_IF0)
                  a6642c90    00000008                     : sciclient_irq_rm.oer5f (.rodata.tisci_irq_CSI_RX_IF1)
                  a6642c98    00000008                     : sciclient_irq_rm.oer5f (.rodata.tisci_irq_CSI_TX_IF_V2_0)
                  a6642ca0    00000008                     : sciclient_irq_rm.oer5f (.rodata.tisci_irq_CSI_TX_IF_V2_1)
                  a6642ca8    00000008                     : sciclient_irq_rm.oer5f (.rodata.tisci_irq_DCC0)
                  a6642cb0    00000008                     : sciclient_irq_rm.oer5f (.rodata.tisci_irq_DCC1)
                  a6642cb8    00000008                     : sciclient_irq_rm.oer5f (.rodata.tisci_irq_DCC2)
                  a6642cc0    00000008                     : sciclient_irq_rm.oer5f (.rodata.tisci_irq_DCC3)
                  a6642cc8    00000008                     : sciclient_irq_rm.oer5f (.rodata.tisci_irq_DCC4)
                  a6642cd0    00000008                     : sciclient_irq_rm.oer5f (.rodata.tisci_irq_DCC5)
                  a6642cd8    00000008                     : sciclient_irq_rm.oer5f (.rodata.tisci_irq_DCC6)
                  a6642ce0    00000008                     : sciclient_irq_rm.oer5f (.rodata.tisci_irq_DCC7)
                  a6642ce8    00000008                     : sciclient_irq_rm.oer5f (.rodata.tisci_irq_DCC8)
                  a6642cf0    00000008                     : sciclient_irq_rm.oer5f (.rodata.tisci_irq_DCC9)
                  a6642cf8    00000008                     : sciclient_irq_rm.oer5f (.rodata.tisci_irq_DDR0)
                  a6642d00    00000008                     : sciclient_irq_rm.oer5f (.rodata.tisci_irq_DDR1)
                  a6642d08    00000008                     : sciclient_irq_rm.oer5f (.rodata.tisci_irq_DMPAC0_INTD_0)
                  a6642d10    00000008                     : sciclient_irq_rm.oer5f (.rodata.tisci_irq_DSS0)
                  a6642d18    00000008                     : sciclient_irq_rm.oer5f (.rodata.tisci_irq_DSS_DSI0)
                  a6642d20    00000008                     : sciclient_irq_rm.oer5f (.rodata.tisci_irq_DSS_DSI1)
                  a6642d28    00000008                     : sciclient_irq_rm.oer5f (.rodata.tisci_irq_DSS_EDP0)
                  a6642d30    00000008                     : sciclient_irq_rm.oer5f (.rodata.tisci_irq_ECAP0)
                  a6642d38    00000008                     : sciclient_irq_rm.oer5f (.rodata.tisci_irq_ECAP1)
                  a6642d40    00000008                     : sciclient_irq_rm.oer5f (.rodata.tisci_irq_ECAP2)
                  a6642d48    00000008                     : sciclient_irq_rm.oer5f (.rodata.tisci_irq_ELM0)
                  a6642d50    00000008                     : sciclient_irq_rm.oer5f (.rodata.tisci_irq_EPWM0)
                  a6642d58    00000008                     : sciclient_irq_rm.oer5f (.rodata.tisci_irq_EPWM1)
                  a6642d60    00000008                     : sciclient_irq_rm.oer5f (.rodata.tisci_irq_EPWM2)
                  a6642d68    00000008                     : sciclient_irq_rm.oer5f (.rodata.tisci_irq_EPWM3)
                  a6642d70    00000008                     : sciclient_irq_rm.oer5f (.rodata.tisci_irq_EPWM4)
                  a6642d78    00000008                     : sciclient_irq_rm.oer5f (.rodata.tisci_irq_EPWM5)
                  a6642d80    00000008                     : sciclient_irq_rm.oer5f (.rodata.tisci_irq_EQEP0)
                  a6642d88    00000008                     : sciclient_irq_rm.oer5f (.rodata.tisci_irq_EQEP1)
                  a6642d90    00000008                     : sciclient_irq_rm.oer5f (.rodata.tisci_irq_EQEP2)
                  a6642d98    00000008                     : sciclient_irq_rm.oer5f (.rodata.tisci_irq_GPIO0)
                  a6642da0    00000008                     : sciclient_irq_rm.oer5f (.rodata.tisci_irq_GPIO2)
                  a6642da8    00000008                     : sciclient_irq_rm.oer5f (.rodata.tisci_irq_GPIO4)
                  a6642db0    00000008                     : sciclient_irq_rm.oer5f (.rodata.tisci_irq_GPIO6)
                  a6642db8    00000008                     : sciclient_irq_rm.oer5f (.rodata.tisci_irq_GPIOMUX_INTRTR0)
                  a6642dc0    00000008                     : sciclient_irq_rm.oer5f (.rodata.tisci_irq_GPMC0)
                  a6642dc8    00000008                     : sciclient_irq_rm.oer5f (.rodata.tisci_irq_GTC0)
                  a6642dd0    00000008                     : sciclient_irq_rm.oer5f (.rodata.tisci_irq_I2C0)
                  a6642dd8    00000008                     : sciclient_irq_rm.oer5f (.rodata.tisci_irq_I2C1)
                  a6642de0    00000008                     : sciclient_irq_rm.oer5f (.rodata.tisci_irq_I2C2)
                  a6642de8    00000008                     : sciclient_irq_rm.oer5f (.rodata.tisci_irq_I2C3)
                  a6642df0    00000008                     : sciclient_irq_rm.oer5f (.rodata.tisci_irq_I2C4)
                  a6642df8    00000008                     : sciclient_irq_rm.oer5f (.rodata.tisci_irq_I2C5)
                  a6642e00    00000008                     : sciclient_irq_rm.oer5f (.rodata.tisci_irq_I2C6)
                  a6642e08    00000008                     : sciclient_irq_rm.oer5f (.rodata.tisci_irq_J7AEP_GPU_BXS464_WRAP0)
                  a6642e10    00000008                     : sciclient_irq_rm.oer5f (.rodata.tisci_irq_J7AEP_GPU_BXS464_WRAP0_GPU_SS_0)
                  a6642e18    00000008                     : sciclient_irq_rm.oer5f (.rodata.tisci_irq_MAIN2MCU_LVL_INTRTR0)
                  a6642e20    00000008                     : sciclient_irq_rm.oer5f (.rodata.tisci_irq_MAIN2MCU_PLS_INTRTR0)
                  a6642e28    00000008                     : sciclient_irq_rm.oer5f (.rodata.tisci_irq_MCAN0)
                  a6642e30    00000008                     : sciclient_irq_rm.oer5f (.rodata.tisci_irq_MCAN10)
                  a6642e38    00000008                     : sciclient_irq_rm.oer5f (.rodata.tisci_irq_MCAN11)
                  a6642e40    00000008                     : sciclient_irq_rm.oer5f (.rodata.tisci_irq_MCAN12)
                  a6642e48    00000008                     : sciclient_irq_rm.oer5f (.rodata.tisci_irq_MCAN13)
                  a6642e50    00000008                     : sciclient_irq_rm.oer5f (.rodata.tisci_irq_MCAN14)
                  a6642e58    00000008                     : sciclient_irq_rm.oer5f (.rodata.tisci_irq_MCAN15)
                  a6642e60    00000008                     : sciclient_irq_rm.oer5f (.rodata.tisci_irq_MCAN16)
                  a6642e68    00000008                     : sciclient_irq_rm.oer5f (.rodata.tisci_irq_MCAN17)
                  a6642e70    00000008                     : sciclient_irq_rm.oer5f (.rodata.tisci_irq_MCAN1)
                  a6642e78    00000008                     : sciclient_irq_rm.oer5f (.rodata.tisci_irq_MCAN2)
                  a6642e80    00000008                     : sciclient_irq_rm.oer5f (.rodata.tisci_irq_MCAN3)
                  a6642e88    00000008                     : sciclient_irq_rm.oer5f (.rodata.tisci_irq_MCAN4)
                  a6642e90    00000008                     : sciclient_irq_rm.oer5f (.rodata.tisci_irq_MCAN5)
                  a6642e98    00000008                     : sciclient_irq_rm.oer5f (.rodata.tisci_irq_MCAN6)
                  a6642ea0    00000008                     : sciclient_irq_rm.oer5f (.rodata.tisci_irq_MCAN7)
                  a6642ea8    00000008                     : sciclient_irq_rm.oer5f (.rodata.tisci_irq_MCAN8)
                  a6642eb0    00000008                     : sciclient_irq_rm.oer5f (.rodata.tisci_irq_MCAN9)
                  a6642eb8    00000008                     : sciclient_irq_rm.oer5f (.rodata.tisci_irq_MCASP0)
                  a6642ec0    00000008                     : sciclient_irq_rm.oer5f (.rodata.tisci_irq_MCASP1)
                  a6642ec8    00000008                     : sciclient_irq_rm.oer5f (.rodata.tisci_irq_MCASP2)
                  a6642ed0    00000008                     : sciclient_irq_rm.oer5f (.rodata.tisci_irq_MCASP3)
                  a6642ed8    00000008                     : sciclient_irq_rm.oer5f (.rodata.tisci_irq_MCASP4)
                  a6642ee0    00000008                     : sciclient_irq_rm.oer5f (.rodata.tisci_irq_MCSPI0)
                  a6642ee8    00000008                     : sciclient_irq_rm.oer5f (.rodata.tisci_irq_MCSPI1)
                  a6642ef0    00000008                     : sciclient_irq_rm.oer5f (.rodata.tisci_irq_MCSPI2)
                  a6642ef8    00000008                     : sciclient_irq_rm.oer5f (.rodata.tisci_irq_MCSPI3)
                  a6642f00    00000008                     : sciclient_irq_rm.oer5f (.rodata.tisci_irq_MCSPI4)
                  a6642f08    00000008                     : sciclient_irq_rm.oer5f (.rodata.tisci_irq_MCSPI5)
                  a6642f10    00000008                     : sciclient_irq_rm.oer5f (.rodata.tisci_irq_MCSPI6)
                  a6642f18    00000008                     : sciclient_irq_rm.oer5f (.rodata.tisci_irq_MCSPI7)
                  a6642f20    00000008                     : sciclient_irq_rm.oer5f (.rodata.tisci_irq_MCU_CPSW0)
                  a6642f28    00000008                     : sciclient_irq_rm.oer5f (.rodata.tisci_irq_MCU_NAVSS0_INTR_ROUTER_0)
                  a6642f30    00000008                     : sciclient_irq_rm.oer5f (.rodata.tisci_irq_MCU_NAVSS0_MCRC_0)
                  a6642f38    00000008                     : sciclient_irq_rm.oer5f (.rodata.tisci_irq_MCU_NAVSS0_UDMASS_INTA_0)
                  a6642f40    00000008                     : sciclient_irq_rm.oer5f (.rodata.tisci_irq_MCU_SA3_SS0_INTAGGR_0)
                  a6642f48    00000008                     : sciclient_irq_rm.oer5f (.rodata.tisci_irq_MMCSD0)
                  a6642f50    00000008                     : sciclient_irq_rm.oer5f (.rodata.tisci_irq_MMCSD1)
                  a6642f58    00000008                     : sciclient_irq_rm.oer5f (.rodata.tisci_irq_NAVSS0)
                  a6642f60    00000008                     : sciclient_irq_rm.oer5f (.rodata.tisci_irq_NAVSS0_CPTS_0)
                  a6642f68    00000008                     : sciclient_irq_rm.oer5f (.rodata.tisci_irq_NAVSS0_INTR_0)
                  a6642f70    00000008                     : sciclient_irq_rm.oer5f (.rodata.tisci_irq_NAVSS0_MAILBOX1_0)
                  a6642f78    00000008                     : sciclient_irq_rm.oer5f (.rodata.tisci_irq_NAVSS0_MAILBOX1_10)
                  a6642f80    00000008                     : sciclient_irq_rm.oer5f (.rodata.tisci_irq_NAVSS0_MAILBOX1_11)
                  a6642f88    00000008                     : sciclient_irq_rm.oer5f (.rodata.tisci_irq_NAVSS0_MAILBOX1_1)
                  a6642f90    00000008                     : sciclient_irq_rm.oer5f (.rodata.tisci_irq_NAVSS0_MAILBOX1_2)
                  a6642f98    00000008                     : sciclient_irq_rm.oer5f (.rodata.tisci_irq_NAVSS0_MAILBOX1_3)
                  a6642fa0    00000008                     : sciclient_irq_rm.oer5f (.rodata.tisci_irq_NAVSS0_MAILBOX1_4)
                  a6642fa8    00000008                     : sciclient_irq_rm.oer5f (.rodata.tisci_irq_NAVSS0_MAILBOX1_5)
                  a6642fb0    00000008                     : sciclient_irq_rm.oer5f (.rodata.tisci_irq_NAVSS0_MAILBOX1_6)
                  a6642fb8    00000008                     : sciclient_irq_rm.oer5f (.rodata.tisci_irq_NAVSS0_MAILBOX1_7)
                  a6642fc0    00000008                     : sciclient_irq_rm.oer5f (.rodata.tisci_irq_NAVSS0_MAILBOX1_8)
                  a6642fc8    00000008                     : sciclient_irq_rm.oer5f (.rodata.tisci_irq_NAVSS0_MAILBOX1_9)
                  a6642fd0    00000008                     : sciclient_irq_rm.oer5f (.rodata.tisci_irq_NAVSS0_MAILBOX_0)
                  a6642fd8    00000008                     : sciclient_irq_rm.oer5f (.rodata.tisci_irq_NAVSS0_MAILBOX_10)
                  a6642fe0    00000008                     : sciclient_irq_rm.oer5f (.rodata.tisci_irq_NAVSS0_MAILBOX_11)
                  a6642fe8    00000008                     : sciclient_irq_rm.oer5f (.rodata.tisci_irq_NAVSS0_MAILBOX_1)
                  a6642ff0    00000008                     : sciclient_irq_rm.oer5f (.rodata.tisci_irq_NAVSS0_MAILBOX_2)
                  a6642ff8    00000008                     : sciclient_irq_rm.oer5f (.rodata.tisci_irq_NAVSS0_MAILBOX_3)
                  a6643000    00000008                     : sciclient_irq_rm.oer5f (.rodata.tisci_irq_NAVSS0_MAILBOX_4)
                  a6643008    00000008                     : sciclient_irq_rm.oer5f (.rodata.tisci_irq_NAVSS0_MAILBOX_5)
                  a6643010    00000008                     : sciclient_irq_rm.oer5f (.rodata.tisci_irq_NAVSS0_MAILBOX_6)
                  a6643018    00000008                     : sciclient_irq_rm.oer5f (.rodata.tisci_irq_NAVSS0_MAILBOX_7)
                  a6643020    00000008                     : sciclient_irq_rm.oer5f (.rodata.tisci_irq_NAVSS0_MAILBOX_8)
                  a6643028    00000008                     : sciclient_irq_rm.oer5f (.rodata.tisci_irq_NAVSS0_MAILBOX_9)
                  a6643030    00000008                     : sciclient_irq_rm.oer5f (.rodata.tisci_irq_NAVSS0_MCRC_0)
                  a6643038    00000008                     : sciclient_irq_rm.oer5f (.rodata.tisci_irq_NAVSS0_MODSS_INTA_0)
                  a6643040    00000008                     : sciclient_irq_rm.oer5f (.rodata.tisci_irq_NAVSS0_MODSS_INTA_1)
                  a6643048    00000008                     : sciclient_irq_rm.oer5f (.rodata.tisci_irq_NAVSS0_PVU_0)
                  a6643050    00000008                     : sciclient_irq_rm.oer5f (.rodata.tisci_irq_NAVSS0_PVU_1)
                  a6643058    00000008                     : sciclient_irq_rm.oer5f (.rodata.tisci_irq_NAVSS0_UDMASS_INTA_0)
                  a6643060    00000008                     : sciclient_irq_rm.oer5f (.rodata.tisci_irq_PCIE1)
                  a6643068    00000008                     : sciclient_irq_rm.oer5f (.rodata.tisci_irq_SA2_UL0)
                  a6643070    00000008                     : sciclient_irq_rm.oer5f (.rodata.tisci_irq_TIMER0)
                  a6643078    00000008                     : sciclient_irq_rm.oer5f (.rodata.tisci_irq_TIMER10)
                  a6643080    00000008                     : sciclient_irq_rm.oer5f (.rodata.tisci_irq_TIMER11)
                  a6643088    00000008                     : sciclient_irq_rm.oer5f (.rodata.tisci_irq_TIMER12)
                  a6643090    00000008                     : sciclient_irq_rm.oer5f (.rodata.tisci_irq_TIMER13)
                  a6643098    00000008                     : sciclient_irq_rm.oer5f (.rodata.tisci_irq_TIMER14)
                  a66430a0    00000008                     : sciclient_irq_rm.oer5f (.rodata.tisci_irq_TIMER15)
                  a66430a8    00000008                     : sciclient_irq_rm.oer5f (.rodata.tisci_irq_TIMER16)
                  a66430b0    00000008                     : sciclient_irq_rm.oer5f (.rodata.tisci_irq_TIMER17)
                  a66430b8    00000008                     : sciclient_irq_rm.oer5f (.rodata.tisci_irq_TIMER18)
                  a66430c0    00000008                     : sciclient_irq_rm.oer5f (.rodata.tisci_irq_TIMER19)
                  a66430c8    00000008                     : sciclient_irq_rm.oer5f (.rodata.tisci_irq_TIMER1)
                  a66430d0    00000008                     : sciclient_irq_rm.oer5f (.rodata.tisci_irq_TIMER2)
                  a66430d8    00000008                     : sciclient_irq_rm.oer5f (.rodata.tisci_irq_TIMER3)
                  a66430e0    00000008                     : sciclient_irq_rm.oer5f (.rodata.tisci_irq_TIMER4)
                  a66430e8    00000008                     : sciclient_irq_rm.oer5f (.rodata.tisci_irq_TIMER5)
                  a66430f0    00000008                     : sciclient_irq_rm.oer5f (.rodata.tisci_irq_TIMER6)
                  a66430f8    00000008                     : sciclient_irq_rm.oer5f (.rodata.tisci_irq_TIMER7)
                  a6643100    00000008                     : sciclient_irq_rm.oer5f (.rodata.tisci_irq_TIMER8)
                  a6643108    00000008                     : sciclient_irq_rm.oer5f (.rodata.tisci_irq_TIMER9)
                  a6643110    00000008                     : sciclient_irq_rm.oer5f (.rodata.tisci_irq_TIMESYNC_INTRTR0)
                  a6643118    00000008                     : sciclient_irq_rm.oer5f (.rodata.tisci_irq_UART0)
                  a6643120    00000008                     : sciclient_irq_rm.oer5f (.rodata.tisci_irq_UART1)
                  a6643128    00000008                     : sciclient_irq_rm.oer5f (.rodata.tisci_irq_UART2)
                  a6643130    00000008                     : sciclient_irq_rm.oer5f (.rodata.tisci_irq_UART3)
                  a6643138    00000008                     : sciclient_irq_rm.oer5f (.rodata.tisci_irq_UART4)
                  a6643140    00000008                     : sciclient_irq_rm.oer5f (.rodata.tisci_irq_UART5)
                  a6643148    00000008                     : sciclient_irq_rm.oer5f (.rodata.tisci_irq_UART6)
                  a6643150    00000008                     : sciclient_irq_rm.oer5f (.rodata.tisci_irq_UART7)
                  a6643158    00000008                     : sciclient_irq_rm.oer5f (.rodata.tisci_irq_UART8)
                  a6643160    00000008                     : sciclient_irq_rm.oer5f (.rodata.tisci_irq_UART9)
                  a6643168    00000008                     : sciclient_irq_rm.oer5f (.rodata.tisci_irq_USB0)
                  a6643170    00000008                     : sciclient_irq_rm.oer5f (.rodata.tisci_irq_VPAC0)
                  a6643178    00000008                     : sciclient_irq_rm.oer5f (.rodata.tisci_irq_VUSR_DUAL0)
                  a6643180    00000008                     : sciclient_irq_rm.oer5f (.rodata.tisci_irq_WKUP_GPIO0)
                  a6643188    00000008                     : sciclient_irq_rm.oer5f (.rodata.tisci_irq_WKUP_GPIO1)
                  a6643190    00000008                     : sciclient_irq_rm.oer5f (.rodata.tisci_irq_WKUP_GPIOMUX_INTRTR0)
                  a6643198    00000007     libc.a : _scanfi.c.obj (.rodata._sproc_int.flit)
                  a664319f    00000007     ipc.aer5f : ipc_utils.oer5f (.rodata.str1.1)
                  a66431a6    00000006     libc.a : _scanfi.c.obj (.rodata._sproc_int.barr)
                  a66431ac    00000004     sciclient.aer5f : sciclient_irq_rm.oer5f (.rodata.tisci_if_DCC0)
                  a66431b0    00000004                     : sciclient_irq_rm.oer5f (.rodata.tisci_if_DCC1)
                  a66431b4    00000004                     : sciclient_irq_rm.oer5f (.rodata.tisci_if_DCC2)
                  a66431b8    00000004                     : sciclient_irq_rm.oer5f (.rodata.tisci_if_DCC3)
                  a66431bc    00000004                     : sciclient_irq_rm.oer5f (.rodata.tisci_if_DCC4)
                  a66431c0    00000004                     : sciclient_irq_rm.oer5f (.rodata.tisci_if_DCC5)
                  a66431c4    00000004                     : sciclient_irq_rm.oer5f (.rodata.tisci_if_DCC6)
                  a66431c8    00000004                     : sciclient_irq_rm.oer5f (.rodata.tisci_if_DCC7)
                  a66431cc    00000004                     : sciclient_irq_rm.oer5f (.rodata.tisci_if_DCC8)
                  a66431d0    00000004                     : sciclient_irq_rm.oer5f (.rodata.tisci_if_DCC9)
                  a66431d4    00000004                     : sciclient_irq_rm.oer5f (.rodata.tisci_if_DMPAC0_INTD_0)
                  a66431d8    00000004                     : sciclient_irq_rm.oer5f (.rodata.tisci_if_DSS_DSI0)
                  a66431dc    00000004                     : sciclient_irq_rm.oer5f (.rodata.tisci_if_DSS_DSI1)
                  a66431e0    00000004                     : sciclient_irq_rm.oer5f (.rodata.tisci_if_DSS_EDP0)
                  a66431e4    00000004                     : sciclient_irq_rm.oer5f (.rodata.tisci_if_ECAP0)
                  a66431e8    00000004                     : sciclient_irq_rm.oer5f (.rodata.tisci_if_ECAP1)
                  a66431ec    00000004                     : sciclient_irq_rm.oer5f (.rodata.tisci_if_ECAP2)
                  a66431f0    00000004                     : sciclient_irq_rm.oer5f (.rodata.tisci_if_ELM0)
                  a66431f4    00000004                     : sciclient_irq_rm.oer5f (.rodata.tisci_if_EQEP0)
                  a66431f8    00000004                     : sciclient_irq_rm.oer5f (.rodata.tisci_if_EQEP1)
                  a66431fc    00000004                     : sciclient_irq_rm.oer5f (.rodata.tisci_if_EQEP2)
                  a6643200    00000004                     : sciclient_irq_rm.oer5f (.rodata.tisci_if_GPIO0)
                  a6643204    00000004                     : sciclient_irq_rm.oer5f (.rodata.tisci_if_GPIO2)
                  a6643208    00000004                     : sciclient_irq_rm.oer5f (.rodata.tisci_if_GPIO4)
                  a664320c    00000004                     : sciclient_irq_rm.oer5f (.rodata.tisci_if_GPIO6)
                  a6643210    00000004                     : sciclient_irq_rm.oer5f (.rodata.tisci_if_GPMC0)
                  a6643214    00000004                     : sciclient_irq_rm.oer5f (.rodata.tisci_if_GTC0)
                  a6643218    00000004                     : sciclient_irq_rm.oer5f (.rodata.tisci_if_I2C0)
                  a664321c    00000004                     : sciclient_irq_rm.oer5f (.rodata.tisci_if_I2C1)
                  a6643220    00000004                     : sciclient_irq_rm.oer5f (.rodata.tisci_if_I2C2)
                  a6643224    00000004                     : sciclient_irq_rm.oer5f (.rodata.tisci_if_I2C3)
                  a6643228    00000004                     : sciclient_irq_rm.oer5f (.rodata.tisci_if_I2C4)
                  a664322c    00000004                     : sciclient_irq_rm.oer5f (.rodata.tisci_if_I2C5)
                  a6643230    00000004                     : sciclient_irq_rm.oer5f (.rodata.tisci_if_I2C6)
                  a6643234    00000004                     : sciclient_irq_rm.oer5f (.rodata.tisci_if_J7AEP_GPU_BXS464_WRAP0)
                  a6643238    00000004                     : sciclient_irq_rm.oer5f (.rodata.tisci_if_J7AEP_GPU_BXS464_WRAP0_GPU_SS_0)
                  a664323c    00000004                     : sciclient_irq_rm.oer5f (.rodata.tisci_if_MCSPI0)
                  a6643240    00000004                     : sciclient_irq_rm.oer5f (.rodata.tisci_if_MCSPI1)
                  a6643244    00000004                     : sciclient_irq_rm.oer5f (.rodata.tisci_if_MCSPI2)
                  a6643248    00000004                     : sciclient_irq_rm.oer5f (.rodata.tisci_if_MCSPI3)
                  a664324c    00000004                     : sciclient_irq_rm.oer5f (.rodata.tisci_if_MCSPI4)
                  a6643250    00000004                     : sciclient_irq_rm.oer5f (.rodata.tisci_if_MCSPI5)
                  a6643254    00000004                     : sciclient_irq_rm.oer5f (.rodata.tisci_if_MCSPI6)
                  a6643258    00000004                     : sciclient_irq_rm.oer5f (.rodata.tisci_if_MCSPI7)
                  a664325c    00000004                     : sciclient_irq_rm.oer5f (.rodata.tisci_if_MCU_NAVSS0_UDMASS_INTA_0)
                  a6643260    00000004                     : sciclient_irq_rm.oer5f (.rodata.tisci_if_MMCSD0)
                  a6643264    00000004                     : sciclient_irq_rm.oer5f (.rodata.tisci_if_MMCSD1)
                  a6643268    00000004                     : sciclient_irq_rm.oer5f (.rodata.tisci_if_NAVSS0_CPTS_0)
                  a664326c    00000004                     : sciclient_irq_rm.oer5f (.rodata.tisci_if_NAVSS0_MODSS_INTA_0)
                  a6643270    00000004                     : sciclient_irq_rm.oer5f (.rodata.tisci_if_NAVSS0_MODSS_INTA_1)
                  a6643274    00000004                     : sciclient_irq_rm.oer5f (.rodata.tisci_if_NAVSS0_PVU_0)
                  a6643278    00000004                     : sciclient_irq_rm.oer5f (.rodata.tisci_if_NAVSS0_PVU_1)
                  a664327c    00000004                     : sciclient_irq_rm.oer5f (.rodata.tisci_if_NAVSS0_UDMASS_INTA_0)
                  a6643280    00000004                     : sciclient_irq_rm.oer5f (.rodata.tisci_if_TIMER0)
                  a6643284    00000004                     : sciclient_irq_rm.oer5f (.rodata.tisci_if_TIMER10)
                  a6643288    00000004                     : sciclient_irq_rm.oer5f (.rodata.tisci_if_TIMER11)
                  a664328c    00000004                     : sciclient_irq_rm.oer5f (.rodata.tisci_if_TIMER12)
                  a6643290    00000004                     : sciclient_irq_rm.oer5f (.rodata.tisci_if_TIMER13)
                  a6643294    00000004                     : sciclient_irq_rm.oer5f (.rodata.tisci_if_TIMER1)
                  a6643298    00000004                     : sciclient_irq_rm.oer5f (.rodata.tisci_if_TIMER2)
                  a664329c    00000004                     : sciclient_irq_rm.oer5f (.rodata.tisci_if_TIMER3)
                  a66432a0    00000004                     : sciclient_irq_rm.oer5f (.rodata.tisci_if_TIMER4)
                  a66432a4    00000004                     : sciclient_irq_rm.oer5f (.rodata.tisci_if_TIMER5)
                  a66432a8    00000004                     : sciclient_irq_rm.oer5f (.rodata.tisci_if_TIMER6)
                  a66432ac    00000004                     : sciclient_irq_rm.oer5f (.rodata.tisci_if_TIMER7)
                  a66432b0    00000004                     : sciclient_irq_rm.oer5f (.rodata.tisci_if_TIMER8)
                  a66432b4    00000004                     : sciclient_irq_rm.oer5f (.rodata.tisci_if_TIMER9)
                  a66432b8    00000004                     : sciclient_irq_rm.oer5f (.rodata.tisci_if_UART0)
                  a66432bc    00000004                     : sciclient_irq_rm.oer5f (.rodata.tisci_if_UART1)
                  a66432c0    00000004                     : sciclient_irq_rm.oer5f (.rodata.tisci_if_UART2)
                  a66432c4    00000004                     : sciclient_irq_rm.oer5f (.rodata.tisci_if_UART3)
                  a66432c8    00000004                     : sciclient_irq_rm.oer5f (.rodata.tisci_if_UART4)
                  a66432cc    00000004                     : sciclient_irq_rm.oer5f (.rodata.tisci_if_UART5)
                  a66432d0    00000004                     : sciclient_irq_rm.oer5f (.rodata.tisci_if_UART6)
                  a66432d4    00000004                     : sciclient_irq_rm.oer5f (.rodata.tisci_if_UART7)
                  a66432d8    00000004                     : sciclient_irq_rm.oer5f (.rodata.tisci_if_UART8)
                  a66432dc    00000004                     : sciclient_irq_rm.oer5f (.rodata.tisci_if_UART9)
                  a66432e0    00000004                     : sciclient_irq_rm.oer5f (.rodata.tisci_if_VPAC0)
                  a66432e4    00000004                     : sciclient_irq_rm.oer5f (.rodata.tisci_if_WKUP_GPIO0)
                  a66432e8    00000004                     : sciclient_irq_rm.oer5f (.rodata.tisci_if_WKUP_GPIO1)
                  a66432ec    00000004     ti.kernel.freertos.aer5f : tasks.oer5f (.rodata.uxTopUsedPriority)

.data      0    a663a900    00004900     UNINITIALIZED
                  a663a900    00001000     ti.kernel.freertos.aer5f : port.oer5f (.data.vApplicationGetIdleTaskMemory.uxIdleTaskStack)
                  a663b900    00000800     ti.csl.aer5f : interrupt.oer5f (.data.argArray)
                  a663c100    00000800                  : interrupt.oer5f (.data.fxnArray)
                  a663c900    00000800                  : interrupt.oer5f (.data.intrSrcType)
                  a663d100    000006e0     ti.osal.aer5f : TimerP_nonos.oer5f (.data.gTimerStructs)
                  a663d7e0    00000400     ti.csl.aer5f : interrupt.oer5f (.data.intrPri)
                  a663dbe0    00000400     ti.kernel.freertos.aer5f : port.oer5f (.data.vApplicationGetTimerTaskMemory.uxTimerTaskStack)
                  a663dfe0    00000304     ipc.aer5f : ipc_virtio.oer5f (.data.vrTranslationTable)
                  a663e2e4    00000200     ti.csl.aer5f : interrupt.oer5f (.data.intrMap)
                  a663e4e4    000001f8     ipc.aer5f : ipc_soc.oer5f (.data.g_Ipc_mp_procInfo)
                  a663e6dc    00000140     ti.osal.aer5f : TimerP_default.oer5f (.data.gDmTimerPInfoTbl)
                  a663e81c    00000100     ti.kernel.freertos.aer5f : timers.oer5f (.data.prvCheckForValidListAndQueue.ucStaticTimerQueueStorage)
                  a663e91c    00000100     sciclient.aer5f : sciclient_irq_rm.oer5f (.data.vint_usage_count_MCU_NAVSS0_UDMASS_INTA_0)
                  a663ea1c    00000100                     : sciclient_irq_rm.oer5f (.data.vint_usage_count_NAVSS0_UDMASS_INTA_0)
                  a663eb1c    000000c0                     : sciclient_irq_rm.oer5f (.data.gRmIrInstances)
                  a663ebdc    000000a0                     : sciclient_irq_rm.oer5f (.data.gRmIaInstances)
                  a663ec7c    0000008c     ti.kernel.freertos.aer5f : port.oer5f (.data.vApplicationGetIdleTaskMemory.xIdleTaskTCB)
                  a663ed08    0000008c                              : port.oer5f (.data.vApplicationGetTimerTaskMemory.xTimerTaskTCB)
                  a663ed94    0000006c                              : tasks.oer5f (.data..L_MergedGlobals.2)
                  a663ee00    00000058     sciclient.aer5f : sciclient.oer5f (.data..L_MergedGlobals)
                  a663ee58    00000058     ti.kernel.freertos.aer5f : timers.oer5f (.data..L_MergedGlobals)
                  a663eeb0    00000054     ipc_testsetup.oer5f (.data..L_MergedGlobals)
                  a663ef04    00000040     ti.kernel.freertos.aer5f : tasks.oer5f (.data..L_MergedGlobals)
                  a663ef44    00000040     sciclient.aer5f : sciclient_irq_rm.oer5f (.data.vint_usage_count_NAVSS0_MODSS_INTA_0)
                  a663ef84    00000040                     : sciclient_irq_rm.oer5f (.data.vint_usage_count_NAVSS0_MODSS_INTA_1)
                  a663efc4    00000038     ipc_testsetup.oer5f (.data.gSendTaskBufIdx)
                  a663effc    00000030     ti.kernel.freertos.aer5f : timers.oer5f (.data..L_MergedGlobals.3)
                  a663f02c    00000030     ti.csl.aer5f : interrupt.oer5f (.data.gExptnHandlers)
                  a663f05c    00000030     ipc.aer5f : ipc_soc.oer5f (.data.g_Navss512MbInput)
                  a663f08c    00000030     ipc_echo_test.oer5f (.data.remoteProc)
                  a663f0bc    00000004     ipc.aer5f : ipc_soc.oer5f (.data..L_MergedGlobals)
                  a663f0c0    00000020     ti.osal.aer5f : Utils_freertos.oer5f (.data.gOsal_HwAttrs)
                  a663f0e0    00000020     sciclient.aer5f : sciclient_secureProxyCfg.oer5f (.data.gSciclient_secProxyCfg)
                  a663f100    00000018     ti.kernel.freertos.aer5f : heap_4.oer5f (.data..L_MergedGlobals)
                  a663f118    00000018     ti.osal.aer5f : Utils_freertos.oer5f (.data..L_MergedGlobals)
                  a663f130    00000014     sciclient.aer5f : sciclient_irq_rm.oer5f (.data.rom_usage_MCU_NAVSS0_UDMASS_INTA_0)
                  a663f144    00000010     ipc.aer5f : ipc_virtio.oer5f (.data..L_MergedGlobals)
                  a663f154    00000010     ti.kernel.freertos.aer5f : port.oer5f (.data..L_MergedGlobals)
                  a663f164    00000008     sciclient.aer5f : sciclient.oer5f (.data..L_MergedGlobals.1)
                  a663f16c    00000008     ti.osal.aer5f : LoadP_freertos.oer5f (.data..L_MergedGlobals)
                  a663f174    00000008                   : TaskP_freertos.oer5f (.data..L_MergedGlobals)
                  a663f17c    00000008     sciclient.aer5f : sciclient_irq_rm.oer5f (.data.rom_usage_MAIN2MCU_LVL_INTRTR0)
                  a663f184    00000008                     : sciclient_irq_rm.oer5f (.data.rom_usage_MCU_NAVSS0_INTR_ROUTER_0)
                  a663f18c    00000008                     : sciclient_irq_rm.oer5f (.data.vint_usage_count_MCU_SA3_SS0_INTAGGR_0)
                  a663f194    00000004     libc.a : aeabi_portable.c.obj (.data.__aeabi_errno)
                  a663f198    00000004     ipc.aer5f : ipc_utils.oer5f (.data.gIpcUtilsObj)
                  a663f19c    00000004     ipc_echo_test.oer5f (.data.gNumRemoteProc)
                  a663f1a0    00000004     ipc.aer5f : ipc_mailbox.oer5f (.data.g_ipc_mBoxCnt)
                  a663f1a4    00000004     ipc_echo_test.oer5f (.data.pCntrlBuf)
                  a663f1a8    00000004     ipc_echo_test.oer5f (.data.pRecvTaskBuf)
                  a663f1ac    00000004     ipc_echo_test.oer5f (.data.pRemoteProcArray)
                  a663f1b0    00000004     sciclient.aer5f : sciclient_rom.oer5f (.data.pSciclient_secProxyCfg)
                  a663f1b4    00000004     ipc_echo_test.oer5f (.data.pSendTaskBuf)
                  a663f1b8    00000004     ipc_echo_test.oer5f (.data.pSysVqBuf)
                  a663f1bc    00000004     ipc_echo_test.oer5f (.data.pTaskBuf)
                  a663f1c0    00000004     ti.kernel.freertos.aer5f : timers.oer5f (.data.prvSampleTimeNow.xLastTime)
                  a663f1c4    00000004     ipc.aer5f : ipc_virtio.oer5f (.data.rscTable)
                  a663f1c8    00000004     ipc_echo_test.oer5f (.data.selfProcId)
                  a663f1cc    00000004     ti.kernel.freertos.aer5f : port.oer5f (.data.ulPortTaskHasFPUContext)
                  a663f1d0    00000003     ti.osal.aer5f : Arch_util.oer5f (.data..L_MergedGlobals)
                  a663f1d3    00000001                   : Utils_freertos.oer5f (.data.Osal_DebugP_Assert_Val)
                  a663f1d4    00000001                   : LoadP_freertos.oer5f (.data.gLoadP_initDone)
                  a663f1d5    00000001                   : TimerP_nonos.oer5f (.data.gUpdateFlag)
                  a663f1d6    00000002     --HOLE--
                  a663f1d8    00000001                   : TimerP_nonos.oer5f (.data.gTimerInitDone)
                  a663f1d9    00000027     --HOLE--

ipc_data_buffer 
*          0    a6400000    001f0700     UNINITIALIZED
                  a6400000    001f0700     ipc_echo_test.oer5f (ipc_data_buffer)

.undStack 
*          0    a6ffac00    00000100     UNINITIALIZED
                  a6ffac00    00000100     --HOLE--

.svcStack 
*          0    a6ffad00    00000100     UNINITIALIZED
                  a6ffad00    00000100     --HOLE--

.irqStack 
*          0    a6ffae00    00001000     UNINITIALIZED
                  a6ffae00    00001000     --HOLE--

.fiqStack 
*          0    a6ffbe00    00000100     UNINITIALIZED
                  a6ffbe00    00000100     --HOLE--

.abortStack 
*          0    a6ffbf00    00000100     UNINITIALIZED
                  a6ffbf00    00000100     --HOLE--

.stack     0    a6ffc000    00004000     UNINITIALIZED
                  a6ffc000    00004000     --HOLE--

__llvm_prf_cnts 
*          0    a6400000    00000000     UNINITIALIZED

MODULE SUMMARY

       Module                              code    ro data   rw data
       ------                              ----    -------   -------
    /home/a0485151/ti/jacinto/workarea/pdk/packages/ti/binary/ipc_echo_test_freertos/obj/j784s4_evm/mcu4_0/release/
       ipc_echo_test.oer5f                 0       0         2156368
       ipc_trace.oer5f                     164     0         524292 
       main_rtos.oer5f                     184     56        32768  
       ipc_testsetup.oer5f                 1748    849       140    
       r5f_mpu_j784s4_default.oer5f        0       704       0      
    +--+-----------------------------------+-------+---------+---------+
       Total:                              2096    1609      2713568
                                                                    
    /home/a0485151/ti/jacinto/workarea/pdk/packages/ti/csl/lib/j784s4/r5f/release/ti.csl.aer5f
       interrupt.oer5f                     352     0         7732   
       timer.oer5f                         1056    0         0      
       csl_arm_r5.oer5f                    740     0         0      
       csl_vim.oer5f                       560     0         0      
       mailbox.oer5f                       172     0         0      
       csl_cache.oer5f                     56      0         0      
       csl_r5.oer5f                        40      0         0      
       csl_sec_proxy.oer5f                 20      0         0      
    +--+-----------------------------------+-------+---------+---------+
       Total:                              2996    0         7732   
                                                                    
    /home/a0485151/ti/jacinto/workarea/pdk/packages/ti/csl/lib/j784s4/r5f/release/ti.csl.init.aer5f
       startup.oer5f                       632     788       0      
       r5_startup.oer5f                    460     0         0      
       boot.oer5f                          252     0         0      
    +--+-----------------------------------+-------+---------+---------+
       Total:                              1344    788       0      
                                                                    
    /home/a0485151/ti/jacinto/workarea/pdk/packages/ti/drv/ipc/lib/j784s4/mcu4_0/release/ipc.aer5f
       ipc_api.oer5f                       4944    933       7364   
       ipc_soc.oer5f                       960     4870      556    
       ipc_virtio.oer5f                    2440    300       1184   
       ipc_mailbox.oer5f                   1052    96        2268   
       ipc_mp.oer5f                        396     0         544    
       ipc_utils.oer5f                     800     7         4      
       ipc_osal.oer5f                      512     51        0      
    +--+-----------------------------------+-------+---------+---------+
       Total:                              11104   6257      11920  
                                                                    
    /home/a0485151/ti/jacinto/workarea/pdk/packages/ti/drv/sciclient/lib/j784s4/mcu4_0/release/sciclient.aer5f
       sciclient_irq_rm.oer5f              0       6208      1036   
       sciclient_rm_irq.oer5f              6656    0         40     
       sciclient.oer5f                     2648    12        96     
       sciclient_fmwSecureProxyMap.oer5f   0       1056      0      
       sciclient_secureproxy.oer5f         488     0         0      
       sciclient_rm.oer5f                  464     0         0      
       sciclient_secureProxyCfg.oer5f      0       0         32     
       sciclient_indirect.oer5f            12      0         0      
       sciclient_rom.oer5f                 0       0         4      
    +--+-----------------------------------+-------+---------+---------+
       Total:                              10268   7276      1208   
                                                                    
    /home/a0485151/ti/jacinto/workarea/pdk/packages/ti/kernel/lib/j784s4/mcu4_0/release/ti.kernel.freertos.aer5f
       port.oer5f                          992     85        5444   
       tasks.oer5f                         4572    113       492    
       queue.oer5f                         3532    104       256    
       timers.oer5f                        1540    118       396    
       port_Hwi.oer5f                      692     0         0      
       portASM.oer5f                       604     0         0      
       heap_4.oer5f                        312     122       32     
       list.oer5f                          248     0         0      
       port_Hwi_handlers_asm.oer5f         64      0         0      
    +--+-----------------------------------+-------+---------+---------+
       Total:                              12556   542       6620   
                                                                    
    /home/a0485151/ti/jacinto/workarea/pdk/packages/ti/osal/lib/freertos/j784s4/r5f/release/ti.osal.aer5f
       SemaphoreP_freertos.oer5f           932     73        31760  
       TaskP_freertos.oer5f                580     232       3448   
       TimerP_nonos.oer5f                  2368    34        1766   
       LoadP_freertos.oer5f                440     0         513    
       Arch_util.oer5f                     480     16        327    
       TimerP_default.oer5f                148     190       320    
       RegisterIntr_nonos.oer5f            224     0         0      
       HwiP_freertos.oer5f                 204     0         0      
       Utils_freertos.oer5f                120     0         57     
       DebugP_nonos.oer5f                  36      0         0      
       CacheP_nonos.oer5f                  4       0         0      
    +--+-----------------------------------+-------+---------+---------+
       Total:                              5536    545       38191  
                                                                    
    /home/a0485151/ti/jacinto/workarea/ti-cgt-armllvm_1.3.0.LTS/lib/armv7r-ti-none-eabihf/c/libc.a
       _printfi.c.obj                      6212    34        0      
       _scanfi.c.obj                       5044    34        0      
       strtod.c.obj                        1220    200       0      
       strtoll.c.obj                       644     0         0      
       strtoull.c.obj                      544     0         0      
       strtol.c.obj                        516     0         0      
       strtoul.c.obj                       464     0         0      
       sscanf.c.obj                        328     0         0      
       s_scalbn.c.obj                      320     0         0      
       aeabi_ctype.S.obj                   0       257       0      
       snprintf.c.obj                      252     0         0      
       vsnprintf.c.obj                     236     0         0      
       copy_decompress_lzss.c.obj          172     0         0      
       _ltoa.c.obj                         136     0         0      
       vsprintf.c.obj                      136     0         0      
       s_frexp.c.obj                       124     0         0      
       atoi.c.obj                          108     0         0      
       autoinit.c.obj                      100     0         0      
       memccpy.c.obj                       72      0         0      
       args_main.c.obj                     40      0         0      
       wcslen.c.obj                        32      0         0      
       copy_zero_init.c.obj                24      0         0      
       copy_decompress_none.c.obj          20      0         0      
       aeabi_portable.c.obj                12      0         4      
       exit.c.obj                          16      0         0      
    +--+-----------------------------------+-------+---------+---------+
       Total:                              16772   525       4      
                                                                    
    /home/a0485151/ti/jacinto/workarea/ti-cgt-armllvm_1.3.0.LTS/lib/armv7r-ti-none-eabihf/c/libsysbm.a
       memcpy32.S.obj                      384     0         0      
       memset32.S.obj                      160     0         0      
    +--+-----------------------------------+-------+---------+---------+
       Total:                              544     0         0      
                                                                    
    /home/a0485151/ti/jacinto/workarea/ti-cgt-armllvm_1.3.0.LTS/lib/clang/12.0.1/lib/armv7r-ti-none-eabihf/libclang_rt.builtins.a
       udivsi3.S.obj                       464     0         0      
       udivmoddi4.S.obj                    280     0         0      
       divsi3.S.obj                        44      0         0      
       aeabi_uldivmod.S.obj                36      0         0      
       aeabi_memset.S.obj                  28      0         0      
       aeabi_div0.c.obj                    8       0         0      
       aeabi_memcpy.S.obj                  4       0         0      
    +--+-----------------------------------+-------+---------+---------+
       Total:                              864     0         0      
                                                                    
       Heap:                               0       0         32768  
       Stack:                              0       0         16384  
       Linker Generated:                   0       703       0      
    +--+-----------------------------------+-------+---------+---------+
       Grand Total:                        64080   18245     2828395


LINKER GENERATED COPY TABLES

__TI_cinit_table @ a65f09a8 records: 3, size/record: 8, table size: 24
	.data: load addr=a65f0700, load size=0000028b bytes, run addr=a663a900, run size=00004900 bytes, compression=lzss
	.bss: load addr=a65f0998, load size=00000008 bytes, run addr=a65f2000, run size=00031890 bytes, compression=zero_init
	.tracebuf: load addr=a65f09a0, load size=00000008 bytes, run addr=a6100400, run size=00080004 bytes, compression=zero_init


LINKER GENERATED HANDLER TABLE

__TI_handler_table @ a65f098c records: 3, size/record: 4, table size: 12
	index: 0, handler: __TI_zero_init
	index: 1, handler: __TI_decompress_lzss
	index: 2, handler: __TI_decompress_none


FAR CALL TRAMPOLINES

callee name               trampoline name
   callee addr  tramp addr   call addr  call info
--------------  -----------  ---------  ----------------
abort                     $Tramp$AA$L$PI$$abort
   a6632858     00000d2c     00000d14   ti.csl.init.aer5f : boot.oer5f (.bootCode)
_args_main                $Tramp$AA$L$PI$$_args_main
   a663226c     00000d34     00000d0c   ti.csl.init.aer5f : boot.oer5f (.bootCode)
__TI_auto_init_nobinit_nopinit  $Tramp$AA$L$PI$$__TI_auto_init_nobinit_nopinit
   a66306d0     00000d3c     00000d08   ti.csl.init.aer5f : boot.oer5f (.bootCode)
CSL_vimAckIntr            $Tramp$AA$L$PI$$CSL_vimAckIntr
   a6631698     000004a0     00000348   ti.kernel.freertos.aer5f : port_Hwi.oer5f (.text.hwi)
                             000003ec                            : port_Hwi.oer5f (.text.hwi)
CSL_armR5IntrEnableFiq    $Tramp$AA$L$PI$$CSL_armR5IntrEnableFiq
   a6627bb8     000004a8     00000310   ti.kernel.freertos.aer5f : port_Hwi.oer5f (.text.hwi)
                             00000328                            : port_Hwi.oer5f (.text.hwi)
CSL_vimClrIntrPending     $Tramp$AA$L$PI$$CSL_vimClrIntrPending
   a6630c68     000004b0     000002f4   ti.kernel.freertos.aer5f : port_Hwi.oer5f (.text.hwi)
                             0000033c                            : port_Hwi.oer5f (.text.hwi)
                             000003ac                            : port_Hwi.oer5f (.text.hwi)
                             000003e0                            : port_Hwi.oer5f (.text.hwi)
CSL_vimGetIntrType        $Tramp$AA$L$PI$$CSL_vimGetIntrType
   a66316d0     000004b8     000002dc   ti.kernel.freertos.aer5f : port_Hwi.oer5f (.text.hwi)
                             00000394                            : port_Hwi.oer5f (.text.hwi)
CSL_vimGetActivePendingIntr  $Tramp$AA$L$PI$$CSL_vimGetActivePendingIntr
   a6630560     000004c0     000002c8   ti.kernel.freertos.aer5f : port_Hwi.oer5f (.text.hwi)
                             00000380                            : port_Hwi.oer5f (.text.hwi)
CSL_vimGetFiqVectorAddress  $Tramp$AA$L$PI$$CSL_vimGetFiqVectorAddress
   a66326fc     000004c8     000002b0   ti.kernel.freertos.aer5f : port_Hwi.oer5f (.text.hwi)
vPortRestoreTaskContext   $Tramp$AA$L$PI$$vPortRestoreTaskContext
   00000040     a66328b4     a662decc   ti.kernel.freertos.aer5f : port.oer5f (.text.xPortStartScheduler)

[10 trampolines]
[17 trampoline calls]


GLOBAL SYMBOLS: SORTED ALPHABETICALLY BY Name 

address   name                                                                                          
-------   ----                                                                                          
a6632858  C$$EXIT                                                                                       
a6641f68  CMPEVENT_INTRTR0_outp_0_3_to_COMPUTE_CLUSTER_J7AHP0_CLEC_0_soc_events_in_544_547              
a6641f70  CMPEVENT_INTRTR0_outp_0_3_to_COMPUTE_CLUSTER_J7AHP0_GIC500SS_0_spi_544_547                    
a6641f78  CMPEVENT_INTRTR0_outp_12_15_to_NAVSS0_UDMASS_INTA_0_intaggr_levi_pend_108_111                 
a6641f80  CMPEVENT_INTRTR0_outp_4_7_to_MAIN2MCU_PLS_INTRTR0_in_96_99                                    
a6641f88  CMPEVENT_INTRTR0_outp_8_11_to_R5FSS0_CORE0_intr_326_329                                       
a6641f90  CMPEVENT_INTRTR0_outp_8_11_to_R5FSS0_CORE1_intr_326_329                                       
a6641f98  CMPEVENT_INTRTR0_outp_8_11_to_R5FSS1_CORE0_intr_326_329                                       
a6641fa0  CMPEVENT_INTRTR0_outp_8_11_to_R5FSS1_CORE1_intr_326_329                                       
a6641fa8  CODEC0_vpu_wave521cl_intr_0_0_to_MAIN2MCU_LVL_INTRTR0_in_263_263                              
a6641fb0  CPSW1_cpts_comp_0_0_to_CMPEVENT_INTRTR0_in_11_11                                              
a6641fb8  CPSW1_cpts_genf0_1_1_to_TIMESYNC_INTRTR0_in_18_18                                             
a6641fc0  CPSW1_cpts_genf1_2_2_to_TIMESYNC_INTRTR0_in_19_19                                             
a6641fc8  CPSW1_cpts_sync_3_3_to_TIMESYNC_INTRTR0_in_39_39                                              
a6641fd0  CPSW1_evnt_pend_4_4_to_MAIN2MCU_LVL_INTRTR0_in_72_72                                          
a6641fd8  CPSW1_mdio_pend_5_5_to_MAIN2MCU_LVL_INTRTR0_in_71_71                                          
a6641fe0  CPSW1_stat_pend_6_6_to_MAIN2MCU_LVL_INTRTR0_in_70_70                                          
a6641fe8  CSI_RX_IF0_csi_err_irq_0_0_to_MAIN2MCU_LVL_INTRTR0_in_255_255                                 
a6641ff0  CSI_RX_IF0_csi_irq_1_1_to_MAIN2MCU_LVL_INTRTR0_in_254_254                                     
a6641ff8  CSI_RX_IF0_csi_level_2_2_to_MAIN2MCU_LVL_INTRTR0_in_256_256                                   
a6642000  CSI_RX_IF1_csi_err_irq_0_0_to_MAIN2MCU_LVL_INTRTR0_in_258_258                                 
a6642008  CSI_RX_IF1_csi_irq_1_1_to_MAIN2MCU_LVL_INTRTR0_in_257_257                                     
a6642010  CSI_RX_IF1_csi_level_2_2_to_MAIN2MCU_LVL_INTRTR0_in_259_259                                   
a6642018  CSI_TX_IF_V2_0_csi_interrupt_0_0_to_MAIN2MCU_LVL_INTRTR0_in_250_250                           
a6642020  CSI_TX_IF_V2_0_csi_level_1_1_to_MAIN2MCU_LVL_INTRTR0_in_251_251                               
a6642028  CSI_TX_IF_V2_1_csi_interrupt_0_0_to_MAIN2MCU_LVL_INTRTR0_in_248_248                           
a6642030  CSI_TX_IF_V2_1_csi_level_1_1_to_MAIN2MCU_LVL_INTRTR0_in_249_249                               
a6627d50  CSL_armR5CacheCleanDcacheMva                                                                  
a6627d60  CSL_armR5CacheCleanDcacheSetWay                                                               
a6627d84  CSL_armR5CacheCleanInvalidateDcacheMva                                                        
a6627d8c  CSL_armR5CacheCleanInvalidateDcacheSetWay                                                     
a6627dd0  CSL_armR5CacheDisableEcc                                                                      
a6627cb4  CSL_armR5CacheEnableAllCache                                                                  
a6627e04  CSL_armR5CacheEnableAxiAccess                                                                 
a6627c4c  CSL_armR5CacheEnableDCache                                                                    
a6627db0  CSL_armR5CacheEnableForceWrThru                                                               
a6627c1c  CSL_armR5CacheEnableICache                                                                    
a6627c98  CSL_armR5CacheGetDcacheLineSize                                                               
a6627c7c  CSL_armR5CacheGetIcacheLineSize                                                               
a6631660  CSL_armR5CacheInv                                                                             
a6627cf8  CSL_armR5CacheInvalidateAllCache                                                              
a6627ce0  CSL_armR5CacheInvalidateAllDcache                                                             
a6627cc8  CSL_armR5CacheInvalidateAllIcache                                                             
a6627d1c  CSL_armR5CacheInvalidateDcacheMva                                                             
a6627d2c  CSL_armR5CacheInvalidateDcacheSetWay                                                          
a6627d0c  CSL_armR5CacheInvalidateIcacheMva                                                             
a6627e30  CSL_armR5DisableIrqFiq                                                                        
a6627b88  CSL_armR5Dsb                                                                                  
a6627e44  CSL_armR5EnableIrqFiq                                                                         
a6627b90  CSL_armR5FpuEnable                                                                            
a6627e20  CSL_armR5GetCpsrRegVal                                                                        
a6631e3c  CSL_armR5GetCpuID                                                                             
a6627bb8  CSL_armR5IntrEnableFiq                                                                        
a6627bd8  CSL_armR5IntrEnableIrq                                                                        
a6627bf8  CSL_armR5IntrEnableVic                                                                        
000004d0  CSL_armR5MPUCfg                                                                               
a6627e14  CSL_armR5ReadMpidrReg                                                                         
000008fc  CSL_armR5SetDLFOBit                                                                           
00000748  CSL_armR5StartupCacheEnableAllCache                                                           
000007ac  CSL_armR5StartupCacheEnableDCache                                                             
0000075c  CSL_armR5StartupCacheEnableForceWrThru                                                        
0000077c  CSL_armR5StartupCacheEnableICache                                                             
0000080c  CSL_armR5StartupCacheInvalidateAllCache                                                       
000007f4  CSL_armR5StartupCacheInvalidateAllDcache                                                      
000007dc  CSL_armR5StartupCacheInvalidateAllIcache                                                      
00000870  CSL_armR5StartupFpuEnable                                                                     
0000067c  CSL_armR5StartupGetCpuID                                                                      
000008bc  CSL_armR5StartupIntrEnableFiq                                                                 
000008dc  CSL_armR5StartupIntrEnableIrq                                                                 
00000898  CSL_armR5StartupIntrEnableVic                                                                 
00000848  CSL_armR5StartupMpuCfgRegion                                                                  
00000820  CSL_armR5StartupMpuEnable                                                                     
00000864  CSL_armR5StartupReadMpidrReg                                                                  
a66325bc  CSL_secProxyGetDataAddr                                                                       
000006fc  CSL_startupVimClrIntrPending                                                                  
000006a4  CSL_startupVimSetIntrEnable                                                                   
a6631698  CSL_vimAckIntr                                                                                
a662ee2c  CSL_vimCfgIntr                                                                                
a6630c68  CSL_vimClrIntrPending                                                                         
a6630560  CSL_vimGetActivePendingIntr                                                                   
a66326fc  CSL_vimGetFiqVectorAddress                                                                    
a66316d0  CSL_vimGetIntrType                                                                            
a6630cb0  CSL_vimSetIntrEnable                                                                          
a662b674  CacheP_Inv                                                                                    
a6642038  DCC0_intr_done_level_0_0_to_MAIN2MCU_LVL_INTRTR0_in_88_88                                     
a6642040  DCC1_intr_done_level_0_0_to_MAIN2MCU_LVL_INTRTR0_in_89_89                                     
a6642048  DCC2_intr_done_level_0_0_to_MAIN2MCU_LVL_INTRTR0_in_90_90                                     
a6642050  DCC3_intr_done_level_0_0_to_MAIN2MCU_LVL_INTRTR0_in_91_91                                     
a6642058  DCC4_intr_done_level_0_0_to_MAIN2MCU_LVL_INTRTR0_in_92_92                                     
a6642060  DCC5_intr_done_level_0_0_to_MAIN2MCU_LVL_INTRTR0_in_93_93                                     
a6642068  DCC6_intr_done_level_0_0_to_MAIN2MCU_LVL_INTRTR0_in_94_94                                     
a6642070  DCC7_intr_done_level_0_0_to_MAIN2MCU_LVL_INTRTR0_in_95_95                                     
a6642078  DCC8_intr_done_level_0_0_to_MAIN2MCU_LVL_INTRTR0_in_208_208                                   
a6642080  DCC9_intr_done_level_0_0_to_MAIN2MCU_LVL_INTRTR0_in_209_209                                   
a6642088  DDR0_ddrss_controller_0_0_to_MAIN2MCU_LVL_INTRTR0_in_10_10                                    
a6642090  DDR0_ddrss_hs_phy_global_error_1_1_to_MAIN2MCU_LVL_INTRTR0_in_12_12                           
a6642098  DDR0_ddrss_pll_freq_change_req_2_2_to_MAIN2MCU_LVL_INTRTR0_in_9_9                             
a66420a0  DDR0_ddrss_v2a_other_err_lvl_3_3_to_MAIN2MCU_LVL_INTRTR0_in_11_11                             
a66420a8  DDR1_ddrss_controller_0_0_to_MAIN2MCU_LVL_INTRTR0_in_64_64                                    
a66420b0  DDR1_ddrss_hs_phy_global_error_1_1_to_MAIN2MCU_LVL_INTRTR0_in_66_66                           
a66420b8  DDR1_ddrss_pll_freq_change_req_2_2_to_MAIN2MCU_LVL_INTRTR0_in_63_63                           
a66420c0  DDR1_ddrss_v2a_other_err_lvl_3_3_to_MAIN2MCU_LVL_INTRTR0_in_65_65                             
a66420c8  DMPAC0_INTD_0_system_intr_level_0_1_to_MAIN2MCU_LVL_INTRTR0_in_268_269                        
a66420d0  DSS0_dss_inst0_dispc_func_irq_proc0_0_0_to_MAIN2MCU_LVL_INTRTR0_in_226_226                    
a66420d8  DSS0_dss_inst0_dispc_func_irq_proc1_1_1_to_MAIN2MCU_LVL_INTRTR0_in_227_227                    
a66420e0  DSS0_dss_inst0_dispc_safety_error_irq_proc0_2_2_to_MAIN2MCU_LVL_INTRTR0_in_230_230            
a66420e8  DSS0_dss_inst0_dispc_safety_error_irq_proc1_3_3_to_MAIN2MCU_LVL_INTRTR0_in_231_231            
a66420f0  DSS0_dss_inst0_dispc_secure_irq_proc0_4_4_to_MAIN2MCU_LVL_INTRTR0_in_228_228                  
a66420f8  DSS0_dss_inst0_dispc_secure_irq_proc1_5_5_to_MAIN2MCU_LVL_INTRTR0_in_229_229                  
a6642100  DSS_DSI0_dsi_0_func_intr_0_0_to_MAIN2MCU_LVL_INTRTR0_in_224_224                               
a6642108  DSS_DSI1_dsi_0_func_intr_0_0_to_MAIN2MCU_LVL_INTRTR0_in_225_225                               
a6642110  DSS_EDP0_intr_0_3_to_MAIN2MCU_LVL_INTRTR0_in_238_241                                          
a662b904  DebugP_log1                                                                                   
a6642118  ECAP0_ecap_int_0_0_to_MAIN2MCU_PLS_INTRTR0_in_17_17                                           
a6642120  ECAP1_ecap_int_0_0_to_MAIN2MCU_PLS_INTRTR0_in_18_18                                           
a6642128  ECAP2_ecap_int_0_0_to_MAIN2MCU_PLS_INTRTR0_in_19_19                                           
a6642130  ELM0_elm_porocpsinterrupt_lvl_0_0_to_MAIN2MCU_LVL_INTRTR0_in_7_7                              
a6642138  EPWM0_epwm_etint_0_0_to_MAIN2MCU_PLS_INTRTR0_in_2_2                                           
a6642140  EPWM0_epwm_tripzint_1_1_to_MAIN2MCU_PLS_INTRTR0_in_8_8                                        
a6642148  EPWM1_epwm_etint_0_0_to_MAIN2MCU_PLS_INTRTR0_in_3_3                                           
a6642150  EPWM1_epwm_tripzint_1_1_to_MAIN2MCU_PLS_INTRTR0_in_9_9                                        
a6642158  EPWM2_epwm_etint_0_0_to_MAIN2MCU_PLS_INTRTR0_in_4_4                                           
a6642160  EPWM2_epwm_tripzint_1_1_to_MAIN2MCU_PLS_INTRTR0_in_10_10                                      
a6642168  EPWM3_epwm_etint_0_0_to_MAIN2MCU_PLS_INTRTR0_in_5_5                                           
a6642170  EPWM3_epwm_tripzint_1_1_to_MAIN2MCU_PLS_INTRTR0_in_11_11                                      
a6642178  EPWM4_epwm_etint_0_0_to_MAIN2MCU_PLS_INTRTR0_in_6_6                                           
a6642180  EPWM4_epwm_tripzint_1_1_to_MAIN2MCU_PLS_INTRTR0_in_12_12                                      
a6642188  EPWM5_epwm_etint_0_0_to_MAIN2MCU_PLS_INTRTR0_in_7_7                                           
a6642190  EPWM5_epwm_tripzint_1_1_to_MAIN2MCU_PLS_INTRTR0_in_13_13                                      
a6642198  EQEP0_eqep_int_0_0_to_MAIN2MCU_PLS_INTRTR0_in_14_14                                           
a66421a0  EQEP1_eqep_int_0_0_to_MAIN2MCU_PLS_INTRTR0_in_15_15                                           
a66421a8  EQEP2_eqep_int_0_0_to_MAIN2MCU_PLS_INTRTR0_in_16_16                                           
a663ef08  FreeRTOS_errno                                                                                
a66421b0  GPIO0_gpio_bank_0_7_to_GPIOMUX_INTRTR0_in_145_152                                             
a66421b8  GPIO2_gpio_bank_0_7_to_GPIOMUX_INTRTR0_in_154_161                                             
a66421c0  GPIO4_gpio_bank_0_7_to_GPIOMUX_INTRTR0_in_163_170                                             
a66421c8  GPIO6_gpio_bank_0_7_to_GPIOMUX_INTRTR0_in_172_179                                             
a66421d0  GPIOMUX_INTRTR0_outp_0_15_to_R5FSS0_CORE0_intr_396_411                                        
a66421d8  GPIOMUX_INTRTR0_outp_0_15_to_R5FSS0_CORE1_intr_396_411                                        
a66421e0  GPIOMUX_INTRTR0_outp_0_15_to_R5FSS1_CORE0_intr_396_411                                        
a66421e8  GPIOMUX_INTRTR0_outp_0_15_to_R5FSS1_CORE1_intr_396_411                                        
a66421f0  GPIOMUX_INTRTR0_outp_0_31_to_MAIN2MCU_PLS_INTRTR0_in_64_95                                    
a66421f8  GPIOMUX_INTRTR0_outp_0_7_to_ESM0_esm_pls_event0_664_671                                       
a6642200  GPIOMUX_INTRTR0_outp_0_7_to_ESM0_esm_pls_event1_672_679                                       
a6642208  GPIOMUX_INTRTR0_outp_0_7_to_ESM0_esm_pls_event2_680_687                                       
a6642210  GPIOMUX_INTRTR0_outp_16_31_to_NAVSS0_UDMASS_INTA_0_intaggr_levi_pend_116_131                  
a6642218  GPIOMUX_INTRTR0_outp_16_31_to_R5FSS0_CORE0_intr_176_191                                       
a6642220  GPIOMUX_INTRTR0_outp_16_31_to_R5FSS0_CORE1_intr_176_191                                       
a6642228  GPIOMUX_INTRTR0_outp_16_31_to_R5FSS1_CORE0_intr_176_191                                       
a6642230  GPIOMUX_INTRTR0_outp_16_31_to_R5FSS1_CORE1_intr_176_191                                       
a6642238  GPIOMUX_INTRTR0_outp_8_63_to_COMPUTE_CLUSTER_J7AHP0_CLEC_0_soc_events_in_392_447              
a6642240  GPIOMUX_INTRTR0_outp_8_63_to_COMPUTE_CLUSTER_J7AHP0_GIC500SS_0_spi_392_447                    
a6642248  GPMC0_gpmc_sinterrupt_0_0_to_MAIN2MCU_LVL_INTRTR0_in_8_8                                      
a6642250  GTC0_gtc_push_event_0_0_to_TIMESYNC_INTRTR0_in_1_1                                            
00000d1c  HF                                                                                            
a66321cc  HwiP_Params_init                                                                              
a662bddc  HwiP_clearInterrupt                                                                           
a66314f8  HwiP_create                                                                                   
00000244  HwiP_data_abort_handler                                                                       
00000460  HwiP_data_abort_handler_c                                                                     
a6631b04  HwiP_disable                                                                                  
a662f99c  HwiP_disableInterrupt                                                                         
a6632860  HwiP_enableInterrupt                                                                          
00000294  HwiP_fiq_handler                                                                              
0000010c  HwiP_irq_handler                                                                              
00000364  HwiP_irq_handler_c                                                                            
00000440  HwiP_prefetch_abort_handler                                                                   
00000400  HwiP_reserved_handler                                                                         
a66318c8  HwiP_restore                                                                                  
00000084  HwiP_svc_handler                                                                              
00000420  HwiP_undefined_handler                                                                        
a6642258  I2C0_pointrpend_0_0_to_MAIN2MCU_LVL_INTRTR0_in_56_56                                          
a6642260  I2C1_pointrpend_0_0_to_MAIN2MCU_LVL_INTRTR0_in_57_57                                          
a6642268  I2C2_pointrpend_0_0_to_MAIN2MCU_LVL_INTRTR0_in_58_58                                          
a6642270  I2C3_pointrpend_0_0_to_MAIN2MCU_LVL_INTRTR0_in_59_59                                          
a6642278  I2C4_pointrpend_0_0_to_MAIN2MCU_LVL_INTRTR0_in_60_60                                          
a6642280  I2C5_pointrpend_0_0_to_MAIN2MCU_LVL_INTRTR0_in_61_61                                          
a6642288  I2C6_pointrpend_0_0_to_MAIN2MCU_LVL_INTRTR0_in_62_62                                          
a662fea4  Intc_Init                                                                                     
a66318fc  Intc_IntClrPend                                                                               
a663201c  Intc_IntDisable                                                                               
a6632040  Intc_IntEnable                                                                                
a6631c84  Intc_IntPrioritySet                                                                           
a662e9b4  Intc_IntRegister                                                                              
a6632454  Intc_IntSetSrcType                                                                            
a663246c  Intc_SystemDisable                                                                            
a6632484  Intc_SystemEnable                                                                             
a6632864  Intc_SystemRestore                                                                            
a6630cf8  IpcInitPrms_init                                                                              
a662e418  IpcOsalPrms_init                                                                              
a6630b38  IpcUtils_HeapAlloc                                                                            
a662e7a8  IpcUtils_HeapCreate                                                                           
a663249c  IpcUtils_HeapDelete                                                                           
a6631010  IpcUtils_HeapFree                                                                             
a66321ec  IpcUtils_Init                                                                                 
a6631b34  IpcUtils_Qcreate                                                                              
a66325d0  IpcUtils_Qdelete                                                                              
a6631cb0  IpcUtils_QgetHead                                                                             
a6631e64  IpcUtils_QgetHeadNode                                                                         
a66325e4  IpcUtils_QisEmpty                                                                             
a663271c  IpcUtils_Qnext                                                                                
a6631930  IpcUtils_Qput                                                                                 
a66322cc  IpcUtils_Qremove                                                                              
a662ea5c  Ipc_Trace_printf                                                                              
a6631534  Ipc_allocVirtio                                                                               
a66285d4  Ipc_echo_test                                                                                 
a6632064  Ipc_getCoreName                                                                               
a662dbdc  Ipc_getIntNumRange                                                                            
a66322e8  Ipc_getMailboxBaseAddr                                                                        
a663072c  Ipc_getMailboxInfoRx                                                                          
a66305bc  Ipc_getMailboxInfoTx                                                                          
a6631054  Ipc_getMailboxIntrRouterCfg                                                                   
a66327f8  Ipc_getVqObjMemoryRequiredPerCore                                                             
a662d380  Ipc_init                                                                                      
a662f480  Ipc_initVirtIO                                                                                
a6630d40  Ipc_isRemoteReady                                                                             
a6631098  Ipc_isRemoteVirtioCreated                                                                     
a66325f8  Ipc_loadResourceTable                                                                         
a66310dc  Ipc_mailboxEnableNewMsgInt                                                                    
a662e06c  Ipc_mailboxInternalCallback                                                                   
a6632304  Ipc_mailboxModuleStartup                                                                      
a6629340  Ipc_mailboxRegister                                                                           
a662d6f4  Ipc_mailboxSend                                                                               
a6630380  Ipc_mpGetName                                                                                 
a663272c  Ipc_mpGetNumProcessors                                                                        
a6631e8c  Ipc_mpGetRemoteProcId                                                                         
a663273c  Ipc_mpGetSelfId                                                                               
a663274c  Ipc_mpGetSelfName                                                                             
a662f1c4  Ipc_mpSetConfig                                                                               
a662fd54  Ipc_physToVirt                                                                                
a663018c  Ipc_sciclientIrqRelease                                                                       
a6630054  Ipc_sciclientIrqSet                                                                           
a6631998  Ipc_sciclientIrqTranslate                                                                     
a662dca0  Ipc_setCoreEventId                                                                            
a6100400  Ipc_traceBuffer                                                                               
a662d7c8  Ipc_updateVirtioInfo                                                                          
a662fdc4  Ipc_virtToPhys                                                                                
a6642290  J7AEP_GPU_BXS464_WRAP0_GPU_SS_0_os_irq_0_3_to_MAIN2MCU_LVL_INTRTR0_in_312_315                 
a6642298  J7AEP_GPU_BXS464_WRAP0_gpu_pwrctrl_req_0_0_to_MAIN2MCU_LVL_INTRTR0_in_316_316                 
a66303e0  LoadP_addTask                                                                                 
a662c288  LoadP_update                                                                                  
a66422a0  MAIN2MCU_LVL_INTRTR0_outl_0_63_to_MCU_R5FSS0_CORE0_intr_160_223                               
a66422a8  MAIN2MCU_LVL_INTRTR0_outl_0_63_to_MCU_R5FSS0_CORE1_intr_160_223                               
a66422b0  MAIN2MCU_PLS_INTRTR0_outp_0_47_to_MCU_R5FSS0_CORE0_intr_224_271                               
a66422b8  MAIN2MCU_PLS_INTRTR0_outp_0_47_to_MCU_R5FSS0_CORE1_intr_224_271                               
a66422c0  MCAN0_mcanss_ext_ts_rollover_lvl_int_0_0_to_MAIN2MCU_LVL_INTRTR0_in_18_18                     
a66422c8  MCAN0_mcanss_mcan_lvl_int_1_2_to_MAIN2MCU_LVL_INTRTR0_in_16_17                                
a66422d0  MCAN10_mcanss_ext_ts_rollover_lvl_int_0_0_to_MAIN2MCU_LVL_INTRTR0_in_298_298                  
a66422d8  MCAN10_mcanss_mcan_lvl_int_1_2_to_MAIN2MCU_LVL_INTRTR0_in_296_297                             
a66422e0  MCAN11_mcanss_ext_ts_rollover_lvl_int_0_0_to_MAIN2MCU_LVL_INTRTR0_in_301_301                  
a66422e8  MCAN11_mcanss_mcan_lvl_int_1_2_to_MAIN2MCU_LVL_INTRTR0_in_299_300                             
a66422f0  MCAN12_mcanss_ext_ts_rollover_lvl_int_0_0_to_MAIN2MCU_LVL_INTRTR0_in_304_304                  
a66422f8  MCAN12_mcanss_mcan_lvl_int_1_2_to_MAIN2MCU_LVL_INTRTR0_in_302_303                             
a6642300  MCAN13_mcanss_ext_ts_rollover_lvl_int_0_0_to_MAIN2MCU_LVL_INTRTR0_in_307_307                  
a6642308  MCAN13_mcanss_mcan_lvl_int_1_2_to_MAIN2MCU_LVL_INTRTR0_in_305_306                             
a6642310  MCAN14_mcanss_ext_ts_rollover_lvl_int_0_0_to_MAIN2MCU_LVL_INTRTR0_in_162_162                  
a6642318  MCAN14_mcanss_mcan_lvl_int_1_2_to_MAIN2MCU_LVL_INTRTR0_in_160_161                             
a6642320  MCAN15_mcanss_ext_ts_rollover_lvl_int_0_0_to_MAIN2MCU_LVL_INTRTR0_in_165_165                  
a6642328  MCAN15_mcanss_mcan_lvl_int_1_2_to_MAIN2MCU_LVL_INTRTR0_in_163_164                             
a6642330  MCAN16_mcanss_ext_ts_rollover_lvl_int_0_0_to_MAIN2MCU_LVL_INTRTR0_in_172_172                  
a6642338  MCAN16_mcanss_mcan_lvl_int_1_2_to_MAIN2MCU_LVL_INTRTR0_in_170_171                             
a6642340  MCAN17_mcanss_ext_ts_rollover_lvl_int_0_0_to_MAIN2MCU_LVL_INTRTR0_in_175_175                  
a6642348  MCAN17_mcanss_mcan_lvl_int_1_2_to_MAIN2MCU_LVL_INTRTR0_in_173_174                             
a6642350  MCAN1_mcanss_ext_ts_rollover_lvl_int_0_0_to_MAIN2MCU_LVL_INTRTR0_in_21_21                     
a6642358  MCAN1_mcanss_mcan_lvl_int_1_2_to_MAIN2MCU_LVL_INTRTR0_in_19_20                                
a6642360  MCAN2_mcanss_ext_ts_rollover_lvl_int_0_0_to_MAIN2MCU_LVL_INTRTR0_in_24_24                     
a6642368  MCAN2_mcanss_mcan_lvl_int_1_2_to_MAIN2MCU_LVL_INTRTR0_in_22_23                                
a6642370  MCAN3_mcanss_ext_ts_rollover_lvl_int_0_0_to_MAIN2MCU_LVL_INTRTR0_in_27_27                     
a6642378  MCAN3_mcanss_mcan_lvl_int_1_2_to_MAIN2MCU_LVL_INTRTR0_in_25_26                                
a6642380  MCAN4_mcanss_ext_ts_rollover_lvl_int_0_0_to_MAIN2MCU_LVL_INTRTR0_in_280_280                   
a6642388  MCAN4_mcanss_mcan_lvl_int_1_2_to_MAIN2MCU_LVL_INTRTR0_in_278_279                              
a6642390  MCAN5_mcanss_ext_ts_rollover_lvl_int_0_0_to_MAIN2MCU_LVL_INTRTR0_in_283_283                   
a6642398  MCAN5_mcanss_mcan_lvl_int_1_2_to_MAIN2MCU_LVL_INTRTR0_in_281_282                              
a66423a0  MCAN6_mcanss_ext_ts_rollover_lvl_int_0_0_to_MAIN2MCU_LVL_INTRTR0_in_286_286                   
a66423a8  MCAN6_mcanss_mcan_lvl_int_1_2_to_MAIN2MCU_LVL_INTRTR0_in_284_285                              
a66423b0  MCAN7_mcanss_ext_ts_rollover_lvl_int_0_0_to_MAIN2MCU_LVL_INTRTR0_in_289_289                   
a66423b8  MCAN7_mcanss_mcan_lvl_int_1_2_to_MAIN2MCU_LVL_INTRTR0_in_287_288                              
a66423c0  MCAN8_mcanss_ext_ts_rollover_lvl_int_0_0_to_MAIN2MCU_LVL_INTRTR0_in_292_292                   
a66423c8  MCAN8_mcanss_mcan_lvl_int_1_2_to_MAIN2MCU_LVL_INTRTR0_in_290_291                              
a66423d0  MCAN9_mcanss_ext_ts_rollover_lvl_int_0_0_to_MAIN2MCU_LVL_INTRTR0_in_295_295                   
a66423d8  MCAN9_mcanss_mcan_lvl_int_1_2_to_MAIN2MCU_LVL_INTRTR0_in_293_294                              
a66423e0  MCASP0_rec_intr_pend_0_0_to_MAIN2MCU_LVL_INTRTR0_in_177_177                                   
a66423e8  MCASP0_xmit_intr_pend_1_1_to_MAIN2MCU_LVL_INTRTR0_in_176_176                                  
a66423f0  MCASP1_rec_intr_pend_0_0_to_MAIN2MCU_LVL_INTRTR0_in_179_179                                   
a66423f8  MCASP1_xmit_intr_pend_1_1_to_MAIN2MCU_LVL_INTRTR0_in_178_178                                  
a6642400  MCASP2_rec_intr_pend_0_0_to_MAIN2MCU_LVL_INTRTR0_in_181_181                                   
a6642408  MCASP2_xmit_intr_pend_1_1_to_MAIN2MCU_LVL_INTRTR0_in_180_180                                  
a6642410  MCASP3_rec_intr_pend_0_0_to_MAIN2MCU_LVL_INTRTR0_in_183_183                                   
a6642418  MCASP3_xmit_intr_pend_1_1_to_MAIN2MCU_LVL_INTRTR0_in_182_182                                  
a6642420  MCASP4_rec_intr_pend_0_0_to_MAIN2MCU_LVL_INTRTR0_in_185_185                                   
a6642428  MCASP4_xmit_intr_pend_1_1_to_MAIN2MCU_LVL_INTRTR0_in_184_184                                  
a6642430  MCSPI0_intr_spi_0_0_to_MAIN2MCU_LVL_INTRTR0_in_48_48                                          
a6642438  MCSPI1_intr_spi_0_0_to_MAIN2MCU_LVL_INTRTR0_in_49_49                                          
a6642440  MCSPI2_intr_spi_0_0_to_MAIN2MCU_LVL_INTRTR0_in_50_50                                          
a6642448  MCSPI3_intr_spi_0_0_to_MAIN2MCU_LVL_INTRTR0_in_51_51                                          
a6642450  MCSPI4_intr_spi_0_0_to_MAIN2MCU_LVL_INTRTR0_in_52_52                                          
a6642458  MCSPI5_intr_spi_0_0_to_MAIN2MCU_LVL_INTRTR0_in_53_53                                          
a6642460  MCSPI6_intr_spi_0_0_to_MAIN2MCU_LVL_INTRTR0_in_54_54                                          
a6642468  MCSPI7_intr_spi_0_0_to_MAIN2MCU_LVL_INTRTR0_in_55_55                                          
a6642470  MCU_CPSW0_cpts_comp_0_0_to_CMPEVENT_INTRTR0_in_10_10                                          
a6642478  MCU_CPSW0_cpts_genf0_1_1_to_TIMESYNC_INTRTR0_in_16_16                                         
a6642480  MCU_CPSW0_cpts_genf1_2_2_to_TIMESYNC_INTRTR0_in_17_17                                         
a6642488  MCU_CPSW0_cpts_sync_3_3_to_TIMESYNC_INTRTR0_in_38_38                                          
a6642490  MCU_NAVSS0_INTR_ROUTER_0_outl_intr_0_23_to_MCU_R5FSS0_CORE0_intr_64_87                        
a6642498  MCU_NAVSS0_INTR_ROUTER_0_outl_intr_32_55_to_MCU_R5FSS0_CORE1_intr_64_87                       
a66424a0  MCU_NAVSS0_MCRC_0_dma_event_intr_0_3_to_MCU_NAVSS0_INTR_ROUTER_0_in_intr_256_259              
a66424a8  MCU_NAVSS0_MCRC_0_dma_event_intr_0_3_to_MCU_NAVSS0_UDMASS_INTA_0_intaggr_levi_pend_0_3        
a66424b0  MCU_NAVSS0_MCRC_0_intaggr_vintr_pend_4_4_to_MCU_NAVSS0_INTR_ROUTER_0_in_intr_260_260          
a66424b8  MCU_NAVSS0_UDMASS_INTA_0_intaggr_vintr_pend_0_255_to_MCU_NAVSS0_INTR_ROUTER_0_in_intr_0_255   
a66424c0  MCU_SA3_SS0_INTAGGR_0_intaggr_vintr_0_7_to_COMPUTE_CLUSTER_J7AHP0_CLEC_0_soc_events_in_896_903
a66424c8  MCU_SA3_SS0_INTAGGR_0_intaggr_vintr_0_7_to_COMPUTE_CLUSTER_J7AHP0_GIC500SS_0_spi_896_903      
a66424d0  MCU_SA3_SS0_INTAGGR_0_intaggr_vintr_0_7_to_MCU_R5FSS0_CORE0_intr_88_95                        
a66424d8  MCU_SA3_SS0_INTAGGR_0_intaggr_vintr_0_7_to_MCU_R5FSS0_CORE1_intr_88_95                        
a66424e0  MCU_SA3_SS0_INTAGGR_0_intaggr_vintr_2_3_to_R5FSS0_CORE0_intr_148_149                          
a66424e8  MCU_SA3_SS0_INTAGGR_0_intaggr_vintr_2_3_to_R5FSS0_CORE1_intr_148_149                          
a66424f0  MCU_SA3_SS0_INTAGGR_0_intaggr_vintr_4_5_to_R5FSS1_CORE0_intr_148_149                          
a66424f8  MCU_SA3_SS0_INTAGGR_0_intaggr_vintr_4_5_to_R5FSS1_CORE1_intr_148_149                          
a6642500  MMCSD0_emmcss_intr_0_0_to_MAIN2MCU_LVL_INTRTR0_in_28_28                                       
a6642508  MMCSD1_emmcsdss_intr_0_0_to_MAIN2MCU_LVL_INTRTR0_in_29_29                                     
a66324b4  MailboxClrNewMsgStatus                                                                        
a66324cc  MailboxDisableNewMsgInt                                                                       
a66324e4  MailboxEnableNewMsgInt                                                                        
a663220c  MailboxGetMessage                                                                             
a663278c  MailboxGetMessageCount                                                                        
a663233c  MailboxGetRawNewMsgStatus                                                                     
a6632358  MailboxSendMessage                                                                            
a662fe34  Mailbox_plugInterrupt                                                                         
a6642510  NAVSS0_CPTS_0_event_pend_intr_0_0_to_NAVSS0_INTR_0_in_intr_391_391                            
a6642518  NAVSS0_INTR_0_outl_intr_0_63_to_COMPUTE_CLUSTER_J7AHP0_CLEC_0_soc_events_in_64_127            
a6642520  NAVSS0_INTR_0_outl_intr_0_63_to_COMPUTE_CLUSTER_J7AHP0_GIC500SS_0_spi_64_127                  
a6642528  NAVSS0_INTR_0_outl_intr_128_191_to_COMPUTE_CLUSTER_J7AHP0_CLEC_0_soc_events_in_672_735        
a6642530  NAVSS0_INTR_0_outl_intr_128_191_to_COMPUTE_CLUSTER_J7AHP0_GIC500SS_0_spi_672_735              
a6642538  NAVSS0_INTR_0_outl_intr_192_223_to_R5FSS0_CORE0_intr_224_255                                  
a6642540  NAVSS0_INTR_0_outl_intr_224_255_to_R5FSS0_CORE1_intr_224_255                                  
a6642548  NAVSS0_INTR_0_outl_intr_256_287_to_R5FSS1_CORE0_intr_224_255                                  
a6642550  NAVSS0_INTR_0_outl_intr_288_319_to_R5FSS1_CORE1_intr_224_255                                  
a6642558  NAVSS0_INTR_0_outl_intr_400_407_to_MCU_R5FSS0_CORE0_intr_376_383                              
a6642560  NAVSS0_INTR_0_outl_intr_400_407_to_MCU_R5FSS0_CORE1_intr_376_383                              
a6642568  NAVSS0_INTR_0_outl_intr_408_439_to_VUSR_DUAL0_v0_vusr_in_int_0_31                             
a6642570  NAVSS0_INTR_0_outl_intr_408_439_to_VUSR_DUAL0_v1_vusr_in_int_32_63                            
a6642578  NAVSS0_INTR_0_outl_intr_64_127_to_COMPUTE_CLUSTER_J7AHP0_CLEC_0_soc_events_in_448_511         
a6642580  NAVSS0_INTR_0_outl_intr_64_127_to_COMPUTE_CLUSTER_J7AHP0_GIC500SS_0_spi_448_511               
a6642588  NAVSS0_MAILBOX1_0_pend_intr_0_3_to_NAVSS0_INTR_0_in_intr_484_487                              
a6642590  NAVSS0_MAILBOX1_0_pend_intr_0_3_to_NAVSS0_UDMASS_INTA_0_intaggr_levi_pend_4_7                 
a6642598  NAVSS0_MAILBOX1_10_pend_intr_0_3_to_NAVSS0_INTR_0_in_intr_444_447                             
a66425a0  NAVSS0_MAILBOX1_10_pend_intr_0_3_to_NAVSS0_UDMASS_INTA_0_intaggr_levi_pend_44_47              
a66425a8  NAVSS0_MAILBOX1_11_pend_intr_0_3_to_NAVSS0_INTR_0_in_intr_440_443                             
a66425b0  NAVSS0_MAILBOX1_11_pend_intr_0_3_to_NAVSS0_UDMASS_INTA_0_intaggr_levi_pend_48_51              
a66425b8  NAVSS0_MAILBOX1_1_pend_intr_0_3_to_NAVSS0_INTR_0_in_intr_480_483                              
a66425c0  NAVSS0_MAILBOX1_1_pend_intr_0_3_to_NAVSS0_UDMASS_INTA_0_intaggr_levi_pend_8_11                
a66425c8  NAVSS0_MAILBOX1_2_pend_intr_0_3_to_NAVSS0_INTR_0_in_intr_476_479                              
a66425d0  NAVSS0_MAILBOX1_2_pend_intr_0_3_to_NAVSS0_UDMASS_INTA_0_intaggr_levi_pend_12_15               
a66425d8  NAVSS0_MAILBOX1_3_pend_intr_0_3_to_NAVSS0_INTR_0_in_intr_472_475                              
a66425e0  NAVSS0_MAILBOX1_3_pend_intr_0_3_to_NAVSS0_UDMASS_INTA_0_intaggr_levi_pend_16_19               
a66425e8  NAVSS0_MAILBOX1_4_pend_intr_0_3_to_NAVSS0_INTR_0_in_intr_468_471                              
a66425f0  NAVSS0_MAILBOX1_4_pend_intr_0_3_to_NAVSS0_UDMASS_INTA_0_intaggr_levi_pend_20_23               
a66425f8  NAVSS0_MAILBOX1_5_pend_intr_0_3_to_NAVSS0_INTR_0_in_intr_464_467                              
a6642600  NAVSS0_MAILBOX1_5_pend_intr_0_3_to_NAVSS0_UDMASS_INTA_0_intaggr_levi_pend_24_27               
a6642608  NAVSS0_MAILBOX1_6_pend_intr_0_3_to_NAVSS0_INTR_0_in_intr_460_463                              
a6642610  NAVSS0_MAILBOX1_6_pend_intr_0_3_to_NAVSS0_UDMASS_INTA_0_intaggr_levi_pend_28_31               
a6642618  NAVSS0_MAILBOX1_7_pend_intr_0_3_to_NAVSS0_INTR_0_in_intr_456_459                              
a6642620  NAVSS0_MAILBOX1_7_pend_intr_0_3_to_NAVSS0_UDMASS_INTA_0_intaggr_levi_pend_32_35               
a6642628  NAVSS0_MAILBOX1_8_pend_intr_0_3_to_NAVSS0_INTR_0_in_intr_452_455                              
a6642630  NAVSS0_MAILBOX1_8_pend_intr_0_3_to_NAVSS0_UDMASS_INTA_0_intaggr_levi_pend_36_39               
a6642638  NAVSS0_MAILBOX1_9_pend_intr_0_3_to_NAVSS0_INTR_0_in_intr_448_451                              
a6642640  NAVSS0_MAILBOX1_9_pend_intr_0_3_to_NAVSS0_UDMASS_INTA_0_intaggr_levi_pend_40_43               
a6642648  NAVSS0_MAILBOX_0_pend_intr_0_3_to_NAVSS0_INTR_0_in_intr_436_439                               
a6642650  NAVSS0_MAILBOX_0_pend_intr_0_3_to_NAVSS0_UDMASS_INTA_0_intaggr_levi_pend_52_55                
a6642658  NAVSS0_MAILBOX_10_pend_intr_0_3_to_NAVSS0_INTR_0_in_intr_396_399                              
a6642660  NAVSS0_MAILBOX_10_pend_intr_0_3_to_NAVSS0_UDMASS_INTA_0_intaggr_levi_pend_92_95               
a6642668  NAVSS0_MAILBOX_11_pend_intr_0_3_to_NAVSS0_INTR_0_in_intr_392_395                              
a6642670  NAVSS0_MAILBOX_11_pend_intr_0_3_to_NAVSS0_UDMASS_INTA_0_intaggr_levi_pend_96_99               
a6642678  NAVSS0_MAILBOX_1_pend_intr_0_3_to_NAVSS0_INTR_0_in_intr_432_435                               
a6642680  NAVSS0_MAILBOX_1_pend_intr_0_3_to_NAVSS0_UDMASS_INTA_0_intaggr_levi_pend_56_59                
a6642688  NAVSS0_MAILBOX_2_pend_intr_0_3_to_NAVSS0_INTR_0_in_intr_428_431                               
a6642690  NAVSS0_MAILBOX_2_pend_intr_0_3_to_NAVSS0_UDMASS_INTA_0_intaggr_levi_pend_60_63                
a6642698  NAVSS0_MAILBOX_3_pend_intr_0_3_to_NAVSS0_INTR_0_in_intr_424_427                               
a66426a0  NAVSS0_MAILBOX_3_pend_intr_0_3_to_NAVSS0_UDMASS_INTA_0_intaggr_levi_pend_64_67                
a66426a8  NAVSS0_MAILBOX_4_pend_intr_0_3_to_NAVSS0_INTR_0_in_intr_420_423                               
a66426b0  NAVSS0_MAILBOX_4_pend_intr_0_3_to_NAVSS0_UDMASS_INTA_0_intaggr_levi_pend_68_71                
a66426b8  NAVSS0_MAILBOX_5_pend_intr_0_3_to_NAVSS0_INTR_0_in_intr_416_419                               
a66426c0  NAVSS0_MAILBOX_5_pend_intr_0_3_to_NAVSS0_UDMASS_INTA_0_intaggr_levi_pend_72_75                
a66426c8  NAVSS0_MAILBOX_6_pend_intr_0_3_to_NAVSS0_INTR_0_in_intr_412_415                               
a66426d0  NAVSS0_MAILBOX_6_pend_intr_0_3_to_NAVSS0_UDMASS_INTA_0_intaggr_levi_pend_76_79                
a66426d8  NAVSS0_MAILBOX_7_pend_intr_0_3_to_NAVSS0_INTR_0_in_intr_408_411                               
a66426e0  NAVSS0_MAILBOX_7_pend_intr_0_3_to_NAVSS0_UDMASS_INTA_0_intaggr_levi_pend_80_83                
a66426e8  NAVSS0_MAILBOX_8_pend_intr_0_3_to_NAVSS0_INTR_0_in_intr_404_407                               
a66426f0  NAVSS0_MAILBOX_8_pend_intr_0_3_to_NAVSS0_UDMASS_INTA_0_intaggr_levi_pend_84_87                
a66426f8  NAVSS0_MAILBOX_9_pend_intr_0_3_to_NAVSS0_INTR_0_in_intr_400_403                               
a6642700  NAVSS0_MAILBOX_9_pend_intr_0_3_to_NAVSS0_UDMASS_INTA_0_intaggr_levi_pend_88_91                
a6642708  NAVSS0_MCRC_0_dma_event_intr_0_3_to_NAVSS0_INTR_0_in_intr_384_387                             
a6642710  NAVSS0_MCRC_0_dma_event_intr_0_3_to_NAVSS0_UDMASS_INTA_0_intaggr_levi_pend_0_3                
a6642718  NAVSS0_MCRC_0_intaggr_vintr_pend_4_4_to_NAVSS0_INTR_0_in_intr_388_388                         
a6642720  NAVSS0_MODSS_INTA_0_intaggr_vintr_pend_0_63_to_NAVSS0_INTR_0_in_intr_320_383                  
a6642728  NAVSS0_MODSS_INTA_1_intaggr_vintr_pend_0_63_to_NAVSS0_INTR_0_in_intr_256_319                  
a6642730  NAVSS0_PVU_0_exp_intr_0_0_to_NAVSS0_INTR_0_in_intr_489_489                                    
a6642738  NAVSS0_PVU_1_exp_intr_0_0_to_NAVSS0_INTR_0_in_intr_488_488                                    
a6642740  NAVSS0_UDMASS_INTA_0_intaggr_vintr_pend_0_255_to_NAVSS0_INTR_0_in_intr_0_255                  
a6642748  NAVSS0_cpts0_comp_0_0_to_CMPEVENT_INTRTR0_in_8_8                                              
a6642750  NAVSS0_cpts0_genf0_1_1_to_TIMESYNC_INTRTR0_in_4_4                                             
a6642758  NAVSS0_cpts0_genf1_2_2_to_TIMESYNC_INTRTR0_in_5_5                                             
a6642760  NAVSS0_cpts0_genf2_3_3_to_TIMESYNC_INTRTR0_in_6_6                                             
a6642768  NAVSS0_cpts0_genf3_4_4_to_TIMESYNC_INTRTR0_in_7_7                                             
a6642770  NAVSS0_cpts0_genf4_5_5_to_TIMESYNC_INTRTR0_in_8_8                                             
a6642778  NAVSS0_cpts0_genf5_6_6_to_TIMESYNC_INTRTR0_in_9_9                                             
a6642780  NAVSS0_cpts0_sync_7_7_to_TIMESYNC_INTRTR0_in_36_36                                            
a6632878  OS_init                                                                                       
a663287c  OS_start                                                                                      
a6632880  OS_stop                                                                                       
a662a8d4  OsalArch_HwiPCreate                                                                           
a6632810  OsalArch_clearInterrupt                                                                       
a6632818  OsalArch_disableInterrupt                                                                     
a6632820  OsalArch_enableInterrupt                                                                      
a6632884  OsalArch_globalDisableInterrupt                                                               
a6632888  OsalArch_globalRestoreInterrupt                                                               
a6632828  Osal_ClearInterrupt                                                                           
a663f1d3  Osal_DebugP_Assert_Val                                                                        
a663222c  Osal_DebugP_assert                                                                            
a663224c  Osal_DebugP_assert_fcn                                                                        
a6632830  Osal_DisableInterrupt                                                                         
a6632838  Osal_EnableInterrupt                                                                          
a662f618  Osal_RegisterInterrupt                                                                        
a6631120  Osal_RegisterInterrupt_initParams                                                             
a6631cdc  Osal_delay                                                                                    
a6631d08  Osal_getThreadType                                                                            
a6642788  PCIE1_pcie_cpts_comp_0_0_to_CMPEVENT_INTRTR0_in_5_5                                           
a6642790  PCIE1_pcie_cpts_genf0_1_1_to_TIMESYNC_INTRTR0_in_11_11                                        
a6642798  PCIE1_pcie_cpts_hw1_push_2_2_to_TIMESYNC_INTRTR0_in_21_21                                     
a66427a0  PCIE1_pcie_cpts_pend_3_3_to_MAIN2MCU_LVL_INTRTR0_in_75_75                                     
a66427a8  PCIE1_pcie_cpts_sync_4_4_to_TIMESYNC_INTRTR0_in_33_33                                         
a66427b0  PCIE1_pcie_downstream_pulse_5_5_to_MAIN2MCU_PLS_INTRTR0_in_41_41                              
a66427b8  PCIE1_pcie_dpa_pulse_6_6_to_MAIN2MCU_PLS_INTRTR0_in_21_21                                     
a66427c0  PCIE1_pcie_error_pulse_7_7_to_MAIN2MCU_PLS_INTRTR0_in_43_43                                   
a66427c8  PCIE1_pcie_flr_pulse_8_8_to_MAIN2MCU_PLS_INTRTR0_in_42_42                                     
a66427d0  PCIE1_pcie_hot_reset_pulse_9_9_to_MAIN2MCU_PLS_INTRTR0_in_47_47                               
a66427d8  PCIE1_pcie_legacy_pulse_10_10_to_MAIN2MCU_PLS_INTRTR0_in_40_40                                
a66427e0  PCIE1_pcie_link_state_pulse_11_11_to_MAIN2MCU_PLS_INTRTR0_in_44_44                            
a66427e8  PCIE1_pcie_local_level_12_12_to_MAIN2MCU_LVL_INTRTR0_in_74_74                                 
a66427f0  PCIE1_pcie_phy_level_13_13_to_MAIN2MCU_LVL_INTRTR0_in_73_73                                   
a66427f8  PCIE1_pcie_ptm_valid_pulse_14_14_to_MAIN2MCU_PLS_INTRTR0_in_46_46                             
a6642800  PCIE1_pcie_pwr_state_pulse_15_15_to_MAIN2MCU_PLS_INTRTR0_in_45_45                             
a6631d34  RPMessageParams_init                                                                          
a662bb7c  RPMessage_announce                                                                            
a6630784  RPMessage_create                                                                              
a662c80c  RPMessage_delete                                                                              
a6632374  RPMessage_getRemoteEndPt                                                                      
a6629dd4  RPMessage_getRemoteEndPtToken                                                                 
a6628cac  RPMessage_init                                                                                
a662ac1c  RPMessage_recv                                                                                
a662a560  RPMessage_send                                                                                
a6642808  SA2_UL0_sa_ul_pka_0_0_to_MAIN2MCU_LVL_INTRTR0_in_5_5                                          
a6642810  SA2_UL0_sa_ul_trng_1_1_to_MAIN2MCU_LVL_INTRTR0_in_4_4                                         
a662f720  Sciclient_abiCheck                                                                            
a6631d60  Sciclient_configPrmsInit                                                                      
a6630d88  Sciclient_flush                                                                               
a6630a98  Sciclient_getCurrentContext                                                                   
a662882c  Sciclient_init                                                                                
a6631d8c  Sciclient_readThread32                                                                        
a66320ac  Sciclient_readThreadCount                                                                     
a6628360  Sciclient_rmClearInterruptRoute                                                               
a662eec8  Sciclient_rmGetResourceRange                                                                  
a6632648  Sciclient_rmIrqRelease                                                                        
a662f2dc  Sciclient_rmIrqReleaseRaw                                                                     
a663288c  Sciclient_rmIrqSet                                                                            
a662f368  Sciclient_rmIrqSetRaw                                                                         
a6632890  Sciclient_rmIrqTranslateIrOutput                                                              
a662756c  Sciclient_rmProgramInterruptRoute                                                             
a662e128  Sciclient_rmTranslateIntOutput                                                                
a662d540  Sciclient_sendMessage                                                                         
a6632798  Sciclient_service                                                                             
a662f7a0  Sciclient_serviceGetPayloadSize                                                               
a662cfe0  Sciclient_serviceGetThreadIds                                                                 
a662deec  Sciclient_servicePrepareHeader                                                                
a6626d8c  Sciclient_serviceSecureProxy                                                                  
a66324fc  Sciclient_threadStatusReg                                                                     
a66320d0  Sciclient_verifyThread                                                                        
a6631778  Sciclient_waitThread                                                                          
a6631570  SemaphoreP_Params_init                                                                        
a662fb84  SemaphoreP_constructBinary                                                                    
a66312b8  SemaphoreP_constructCounting                                                                  
a662b258  SemaphoreP_create                                                                             
a662ff10  SemaphoreP_delete                                                                             
a662fa1c  SemaphoreP_pend                                                                               
a66300bc  SemaphoreP_post                                                                               
a662ef64  SystemP_printf                                                                                
a6642818  TIMER0_intr_pend_0_0_to_MAIN2MCU_LVL_INTRTR0_in_108_108                                       
a6642820  TIMER10_intr_pend_0_0_to_MAIN2MCU_LVL_INTRTR0_in_118_118                                      
a6642828  TIMER11_intr_pend_0_0_to_MAIN2MCU_LVL_INTRTR0_in_119_119                                      
a6642830  TIMER12_intr_pend_0_0_to_MAIN2MCU_LVL_INTRTR0_in_120_120                                      
a6642838  TIMER13_intr_pend_0_0_to_MAIN2MCU_LVL_INTRTR0_in_121_121                                      
a6642840  TIMER14_intr_pend_0_0_to_MAIN2MCU_LVL_INTRTR0_in_122_122                                      
a6642848  TIMER14_timer_pwm_1_1_to_TIMESYNC_INTRTR0_in_2_2                                              
a6642850  TIMER15_intr_pend_0_0_to_MAIN2MCU_LVL_INTRTR0_in_123_123                                      
a6642858  TIMER15_timer_pwm_1_1_to_TIMESYNC_INTRTR0_in_3_3                                              
a6642860  TIMER16_intr_pend_0_0_to_MAIN2MCU_LVL_INTRTR0_in_124_124                                      
a6642868  TIMER16_timer_pwm_1_1_to_TIMESYNC_INTRTR0_in_40_40                                            
a6642870  TIMER17_intr_pend_0_0_to_MAIN2MCU_LVL_INTRTR0_in_125_125                                      
a6642878  TIMER17_timer_pwm_1_1_to_TIMESYNC_INTRTR0_in_41_41                                            
a6642880  TIMER18_intr_pend_0_0_to_MAIN2MCU_LVL_INTRTR0_in_126_126                                      
a6642888  TIMER18_timer_pwm_1_1_to_TIMESYNC_INTRTR0_in_42_42                                            
a6642890  TIMER19_intr_pend_0_0_to_MAIN2MCU_LVL_INTRTR0_in_127_127                                      
a6642898  TIMER19_timer_pwm_1_1_to_TIMESYNC_INTRTR0_in_43_43                                            
a66428a0  TIMER1_intr_pend_0_0_to_MAIN2MCU_LVL_INTRTR0_in_109_109                                       
a66428a8  TIMER2_intr_pend_0_0_to_MAIN2MCU_LVL_INTRTR0_in_110_110                                       
a66428b0  TIMER3_intr_pend_0_0_to_MAIN2MCU_LVL_INTRTR0_in_111_111                                       
a66428b8  TIMER4_intr_pend_0_0_to_MAIN2MCU_LVL_INTRTR0_in_112_112                                       
a66428c0  TIMER5_intr_pend_0_0_to_MAIN2MCU_LVL_INTRTR0_in_113_113                                       
a66428c8  TIMER6_intr_pend_0_0_to_MAIN2MCU_LVL_INTRTR0_in_114_114                                       
a66428d0  TIMER7_intr_pend_0_0_to_MAIN2MCU_LVL_INTRTR0_in_115_115                                       
a66428d8  TIMER8_intr_pend_0_0_to_MAIN2MCU_LVL_INTRTR0_in_116_116                                       
a66428e0  TIMER9_intr_pend_0_0_to_MAIN2MCU_LVL_INTRTR0_in_117_117                                       
a66312f8  TIMERCompareSet                                                                               
a6631164  TIMERCounterGet2                                                                              
a6631338  TIMERCounterSet                                                                               
a66311a8  TIMERDisable                                                                                  
a66311ec  TIMEREnable                                                                                   
a6631eb4  TIMERIntDisable                                                                               
a6631edc  TIMERIntEnable                                                                                
a6631f04  TIMERIntStatusClear                                                                           
a66327a4  TIMERIntStatusGet                                                                             
a662eb00  TIMERModeConfigure                                                                            
a66317b0  TIMERPostedModeConfig                                                                         
a66319cc  TIMERReadModeConfig                                                                           
a6631230  TIMERReloadGet2                                                                               
a6631378  TIMERReloadSet                                                                                
a6630674  TIMERReset                                                                                    
a66327b0  TIMERWritePostedStatusGet                                                                     
a66428e8  TIMESYNC_INTRTR0_outl_0_0_to_NAVSS0_cpts0_hw1_push_0_0                                        
a66428f0  TIMESYNC_INTRTR0_outl_1_1_to_NAVSS0_cpts0_hw2_push_1_1                                        
a66428f8  TIMESYNC_INTRTR0_outl_21_21_to_PCIE1_pcie_cpts_hw2_push_0_0                                   
a6642900  TIMESYNC_INTRTR0_outl_24_24_to_MCU_CPSW0_cpts_hw3_push_0_0                                    
a6642908  TIMESYNC_INTRTR0_outl_25_25_to_MCU_CPSW0_cpts_hw4_push_1_1                                    
a6642910  TIMESYNC_INTRTR0_outl_2_2_to_NAVSS0_cpts0_hw3_push_2_2                                        
a6642918  TIMESYNC_INTRTR0_outl_38_38_to_CPSW1_cpts_hw3_push_0_0                                        
a6642920  TIMESYNC_INTRTR0_outl_39_39_to_CPSW1_cpts_hw4_push_1_1                                        
a6642928  TIMESYNC_INTRTR0_outl_3_3_to_NAVSS0_cpts0_hw4_push_3_3                                        
a6642930  TIMESYNC_INTRTR0_outl_40_47_to_NAVSS0_UDMASS_INTA_0_intaggr_levi_pend_100_107                 
a6642938  TIMESYNC_INTRTR0_outl_4_4_to_NAVSS0_cpts0_hw5_push_4_4                                        
a6642940  TIMESYNC_INTRTR0_outl_5_5_to_NAVSS0_cpts0_hw6_push_5_5                                        
a6642948  TIMESYNC_INTRTR0_outl_6_6_to_NAVSS0_cpts0_hw7_push_6_6                                        
a6642950  TIMESYNC_INTRTR0_outl_7_7_to_NAVSS0_cpts0_hw8_push_7_7                                        
a66317e8  TaskP_Function                                                                                
a6631a00  TaskP_Params_init                                                                             
a662af4c  TaskP_create                                                                                  
a66315ac  TaskP_getFreertosHandle                                                                       
a6632894  TaskP_sleep                                                                                   
a6630440  TimerP_Params_init                                                                            
a6626378  TimerP_create                                                                                 
a6631b94  TimerP_getCount                                                                               
a6632840  TimerP_getDefaultFreqHi                                                                       
a66327bc  TimerP_getDefaultFreqLo                                                                       
a6631bc4  TimerP_getReloadCount                                                                         
a6631f2c  TimerP_mapId                                                                                  
a662c918  TimerP_start                                                                                  
a662f3f4  TimerP_stop                                                                                   
a66307dc  TimerP_updateDefaultInfoTbl                                                                   
a6642958  UART0_usart_irq_0_0_to_MAIN2MCU_LVL_INTRTR0_in_96_96                                          
a6642960  UART1_usart_irq_0_0_to_MAIN2MCU_LVL_INTRTR0_in_97_97                                          
a6642968  UART2_usart_irq_0_0_to_MAIN2MCU_LVL_INTRTR0_in_98_98                                          
a6642970  UART3_usart_irq_0_0_to_MAIN2MCU_LVL_INTRTR0_in_99_99                                          
a6642978  UART4_usart_irq_0_0_to_MAIN2MCU_LVL_INTRTR0_in_100_100                                        
a6642980  UART5_usart_irq_0_0_to_MAIN2MCU_LVL_INTRTR0_in_101_101                                        
a6642988  UART6_usart_irq_0_0_to_MAIN2MCU_LVL_INTRTR0_in_102_102                                        
a6642990  UART7_usart_irq_0_0_to_MAIN2MCU_LVL_INTRTR0_in_103_103                                        
a6642998  UART8_usart_irq_0_0_to_MAIN2MCU_LVL_INTRTR0_in_104_104                                        
a66429a0  UART9_usart_irq_0_0_to_MAIN2MCU_LVL_INTRTR0_in_105_105                                        
a66429a8  USB0_host_system_error_0_0_to_MAIN2MCU_LVL_INTRTR0_in_157_157                                 
a66429b0  USB0_irq_1_8_to_MAIN2MCU_LVL_INTRTR0_in_128_135                                               
a66429b8  USB0_otgirq_9_9_to_MAIN2MCU_LVL_INTRTR0_in_152_152                                            
a66429c0  VPAC0_vpac_level_0_5_to_MAIN2MCU_LVL_INTRTR0_in_270_275                                       
a66429c8  VUSR_DUAL0_v0_mcp_hi_intlvl_0_0_to_MAIN2MCU_LVL_INTRTR0_in_84_84                              
a66429d0  VUSR_DUAL0_v0_mcp_lo_intlvl_1_1_to_MAIN2MCU_LVL_INTRTR0_in_83_83                              
a66429d8  VUSR_DUAL0_v0_vusr_intlvl_2_2_to_MAIN2MCU_LVL_INTRTR0_in_82_82                                
a66429e0  VUSR_DUAL0_v1_mcp_hi_intlvl_3_3_to_MAIN2MCU_LVL_INTRTR0_in_87_87                              
a66429e8  VUSR_DUAL0_v1_mcp_lo_intlvl_4_4_to_MAIN2MCU_LVL_INTRTR0_in_86_86                              
a66429f0  VUSR_DUAL0_v1_vusr_intlvl_5_5_to_MAIN2MCU_LVL_INTRTR0_in_85_85                                
a662bcac  VirtioIPC_createVirtioCorePair                                                                
a662fbf8  VirtioIPC_getVirtQueues                                                                       
a662e1e4  VirtioIPC_init                                                                                
a662f920  Virtio_addAvailBuf                                                                            
a6631820  Virtio_addUsedBuf                                                                             
a662ba48  Virtio_create                                                                                 
a662f820  Virtio_getAvailBuf                                                                            
a663265c  Virtio_getHandle                                                                              
a6632848  Virtio_getProcId                                                                              
a6630834  Virtio_getUsedBuf                                                                             
a6632850  Virtio_isReady                                                                                
a66320f4  Virtio_isRemoteLinux                                                                          
a66313b8  Virtio_isr                                                                                    
a6630e60  Virtio_kick                                                                                   
a66315e8  Virtio_prime                                                                                  
a6631f54  Virtio_setCallback                                                                            
a66429f8  WKUP_GPIO0_gpio_bank_0_5_to_WKUP_GPIOMUX_INTRTR0_in_103_108                                   
a6642a00  WKUP_GPIO1_gpio_bank_0_5_to_WKUP_GPIOMUX_INTRTR0_in_112_117                                   
a6642a08  WKUP_GPIOMUX_INTRTR0_outp_0_15_to_MCU_R5FSS0_CORE0_intr_124_139                               
a6642a10  WKUP_GPIOMUX_INTRTR0_outp_0_15_to_MCU_R5FSS0_CORE1_intr_124_139                               
a6642a18  WKUP_GPIOMUX_INTRTR0_outp_12_19_to_MCU_NAVSS0_UDMASS_INTA_0_intaggr_levi_pend_4_11            
a6642a20  WKUP_GPIOMUX_INTRTR0_outp_16_31_to_COMPUTE_CLUSTER_J7AHP0_CLEC_0_soc_events_in_960_975        
a6642a28  WKUP_GPIOMUX_INTRTR0_outp_16_31_to_COMPUTE_CLUSTER_J7AHP0_GIC500SS_0_spi_960_975              
a6642a30  WKUP_GPIOMUX_INTRTR0_outp_16_31_to_R5FSS0_CORE0_intr_488_503                                  
a6642a38  WKUP_GPIOMUX_INTRTR0_outp_16_31_to_R5FSS0_CORE1_intr_488_503                                  
a6642a40  WKUP_GPIOMUX_INTRTR0_outp_16_31_to_R5FSS1_CORE0_intr_488_503                                  
a6642a48  WKUP_GPIOMUX_INTRTR0_outp_16_31_to_R5FSS1_CORE1_intr_488_503                                  
a6642a50  WKUP_GPIOMUX_INTRTR0_outp_8_15_to_WKUP_ESM0_esm_pls_event0_120_127                            
a6642a58  WKUP_GPIOMUX_INTRTR0_outp_8_15_to_WKUP_ESM0_esm_pls_event1_128_135                            
a6642a60  WKUP_GPIOMUX_INTRTR0_outp_8_15_to_WKUP_ESM0_esm_pls_event2_136_143                            
a6ffc000  __ABORT_STACK_END                                                                             
00000100  __ABORT_STACK_SIZE                                                                            
a6ffbf00  __ABORT_STACK_START                                                                           
a6ffbf00  __FIQ_STACK_END                                                                               
00000100  __FIQ_STACK_SIZE                                                                              
a6ffbe00  __FIQ_STACK_START                                                                             
a6ffbe00  __IRQ_STACK_END                                                                               
00001000  __IRQ_STACK_SIZE                                                                              
a6ffae00  __IRQ_STACK_START                                                                             
a6100000  __RESOURCE_TABLE                                                                              
a7000000  __STACK_END                                                                                   
00004000  __STACK_SIZE                                                                                  
a6ffae00  __SVC_STACK_END                                                                               
00000100  __SVC_STACK_SIZE                                                                              
a6ffad00  __SVC_STACK_START                                                                             
00008000  __SYSMEM_SIZE                                                                                 
a65f09a8  __TI_CINIT_Base                                                                               
a65f09c0  __TI_CINIT_Limit                                                                              
a65f09c0  __TI_CINIT_Warm                                                                               
a65f098c  __TI_Handler_Table_Base                                                                       
a65f0998  __TI_Handler_Table_Limit                                                                      
a66306d0  __TI_auto_init_nobinit_nopinit                                                                
a662e908  __TI_decompress_lzss                                                                          
a66326e8  __TI_decompress_none                                                                          
a662f508  __TI_ltoa                                                                                     
ffffffff  __TI_pprof_out_hndl                                                                           
a6624c44  __TI_printfi                                                                                  
ffffffff  __TI_prof_data_size                                                                           
ffffffff  __TI_prof_data_start                                                                          
a6623890  __TI_scanfi                                                                                   
00000000  __TI_static_base__                                                                            
a66325a4  __TI_zero_init                                                                                
a6ffad00  __UND_STACK_END                                                                               
00000100  __UND_STACK_SIZE                                                                              
a6ffac00  __UND_STACK_START                                                                             
a6641570  __aeabi_ctype_table_                                                                          
a6641570  __aeabi_ctype_table_C                                                                         
a663f194  __aeabi_errno                                                                                 
a66327c8  __aeabi_errno_addr                                                                            
a6631e10  __aeabi_idiv                                                                                  
a66328a0  __aeabi_idiv0                                                                                 
a66328b0  __aeabi_ldiv0                                                                                 
a6632448  __aeabi_memclr                                                                                
a6632448  __aeabi_memclr4                                                                               
a6632448  __aeabi_memclr8                                                                               
a66328a8  __aeabi_memcpy                                                                                
a66328a8  __aeabi_memcpy4                                                                               
a66328a8  __aeabi_memcpy8                                                                               
a6632438  __aeabi_memset                                                                                
a6632438  __aeabi_memset4                                                                               
a6632438  __aeabi_memset8                                                                               
a662a390  __aeabi_uidiv                                                                                 
a66321a8  __aeabi_uldivmod                                                                              
ffffffff  __binit__                                                                                     
UNDEFED   __c_args__                                                                                    
a6631e10  __divsi3                                                                                      
000005c0  __mpu_init                                                                                    
a6ffc000  __stack                                                                                       
a6400000  __start___llvm_prf_cnts                                                                       
a6400000  __stop___llvm_prf_cnts                                                                        
a662c6f4  __udivmoddi4                                                                                  
a662a390  __udivsi3                                                                                     
a663226c  _args_main                                                                                    
00000c44  _c_int00                                                                                      
00000000  _freertosresetvectors                                                                         
a66328c0  _sys_memory                                                                                   
a663252c  _system_post_cinit                                                                            
0000073c  _system_pre_init                                                                              
a6632858  abort                                                                                         
a663b900  argArray                                                                                      
a662ff7c  atoi                                                                                          
ffffffff  binit                                                                                         
a662e6f4  eTaskGetState                                                                                 
a662f9a0  frexp                                                                                         
a662f9a0  frexpl                                                                                        
a663c100  fxnArray                                                                                      
a6400000  gCntrlBuf                                                                                     
a6640eec  gCslR5MpuCfg                                                                                  
a663e6dc  gDmTimerPInfoTbl                                                                              
a663f02c  gExptnHandlers                                                                                
a6623808  gIpcRProcIdToMBoxDataMap                                                                      
a663f198  gIpcUtilsObj                                                                                  
a663f19c  gNumRemoteProc                                                                                
a663f1d0  gOsalArchConfig                                                                               
a663f128  gOsalHwiAllocCnt                                                                              
a663f12c  gOsalHwiPeak                                                                                  
a663f118  gOsalSemAllocCnt                                                                              
a663f11c  gOsalSemPeak                                                                                  
a663f174  gOsalTaskAllocCnt                                                                             
a663f178  gOsalTaskPeak                                                                                 
a663f120  gOsalTimerAllocCnt                                                                            
a663f124  gOsalTimerPeak                                                                                
a663f0c0  gOsal_HwAttrs                                                                                 
a663eeb4  gRecvTaskBufIdx                                                                               
a663ebdc  gRmIaInstances                                                                                
a663eb1c  gRmIrInstances                                                                                
a66411ac  gRmIrqTree                                                                                    
a664156c  gRmIrqTreeCount                                                                               
a66237b8  gRovDummyQueue                                                                                
a663ee04  gSciclientHandle                                                                              
a6640460  gSciclientMap                                                                                 
a663f0e0  gSciclient_secProxyCfg                                                                        
a663efc4  gSendTaskBufIdx                                                                               
a6623868  gTimerCntrl                                                                                   
a663d100  gTimerStructs                                                                                 
a662388c  gVimBaseAddr                                                                                  
a663f05c  g_Navss512MbInput                                                                             
a663eeb0  g_exitRespTsk                                                                                 
a663f1a0  g_ipc_mBoxCnt                                                                                 
a6621f18  g_ipc_mBoxData                                                                                
a65add00  g_rspBuf                                                                                      
a6421100  g_sendBuf                                                                                     
a65f2000  g_taskStackBuf                                                                                
a66327d4  getIpcObjInst                                                                                 
a663e2e4  intrMap                                                                                       
a663d7e0  intrPri                                                                                       
a663c900  intrSrcType                                                                                   
a6630ea8  ipc_initSciclient                                                                             
a662b908  ldexp                                                                                         
a662b908  ldexpl                                                                                        
a66304a0  main                                                                                          
a6630ef0  memccpy                                                                                       
a662b0d8  memcpy                                                                                        
a662ed8c  memset                                                                                        
a6632698  osalArch_Init                                                                                 
a663f1a4  pCntrlBuf                                                                                     
a663f1a8  pRecvTaskBuf                                                                                  
a663f1ac  pRemoteProcArray                                                                              
a663f1b0  pSciclient_secProxyCfg                                                                        
a663f1b4  pSendTaskBuf                                                                                  
a663f1b8  pSysVqBuf                                                                                     
a663f1bc  pTaskBuf                                                                                      
a6631f7c  pvTaskIncrementMutexHeldCount                                                                 
a663ef04  pxCurrentTCB                                                                                  
a662cd04  pxPortInitialiseStack                                                                         
a663f08c  remoteProc                                                                                    
a663eeb8  rpmsgDataSize                                                                                 
a6628a70  rpmsg_responderFxn                                                                            
a6629110  rpmsg_senderFxn                                                                               
a662b908  scalbn                                                                                        
a662b908  scalbnl                                                                                       
a663f1c8  selfProcId                                                                                    
a663eee0  service_chrdev                                                                                
a663eebc  service_ping                                                                                  
a662fce0  snprintf                                                                                      
a6630bd0  sscanf                                                                                        
a66268c8  strtod                                                                                        
a6629bd0  strtol                                                                                        
a66268c8  strtold                                                                                       
a6627e64  strtoll                                                                                       
a662a1c0  strtoul                                                                                       
a66299b0  strtoull                                                                                      
a65eff00  sysVqBuf                                                                                      
a6100000  ti_ipc_remoteproc_ResourceTable                                                               
a6641dcc  tisci_if_CMPEVENT_INTRTR0                                                                     
a6641b5c  tisci_if_CODEC0                                                                               
a6641e2c  tisci_if_CPSW1                                                                                
a6641f24  tisci_if_CSI_RX_IF0                                                                           
a6641f30  tisci_if_CSI_RX_IF1                                                                           
a6642a68  tisci_if_CSI_TX_IF_V2_0                                                                       
a6642a70  tisci_if_CSI_TX_IF_V2_1                                                                       
a66431ac  tisci_if_DCC0                                                                                 
a66431b0  tisci_if_DCC1                                                                                 
a66431b4  tisci_if_DCC2                                                                                 
a66431b8  tisci_if_DCC3                                                                                 
a66431bc  tisci_if_DCC4                                                                                 
a66431c0  tisci_if_DCC5                                                                                 
a66431c4  tisci_if_DCC6                                                                                 
a66431c8  tisci_if_DCC7                                                                                 
a66431cc  tisci_if_DCC8                                                                                 
a66431d0  tisci_if_DCC9                                                                                 
a6641ed8  tisci_if_DDR0                                                                                 
a6641ee8  tisci_if_DDR1                                                                                 
a66431d4  tisci_if_DMPAC0_INTD_0                                                                        
a6641e60  tisci_if_DSS0                                                                                 
a66431d8  tisci_if_DSS_DSI0                                                                             
a66431dc  tisci_if_DSS_DSI1                                                                             
a66431e0  tisci_if_DSS_EDP0                                                                             
a66431e4  tisci_if_ECAP0                                                                                
a66431e8  tisci_if_ECAP1                                                                                
a66431ec  tisci_if_ECAP2                                                                                
a66431f0  tisci_if_ELM0                                                                                 
a6642a78  tisci_if_EPWM0                                                                                
a6642a80  tisci_if_EPWM1                                                                                
a6642a88  tisci_if_EPWM2                                                                                
a6642a90  tisci_if_EPWM3                                                                                
a6642a98  tisci_if_EPWM4                                                                                
a6642aa0  tisci_if_EPWM5                                                                                
a66431f4  tisci_if_EQEP0                                                                                
a66431f8  tisci_if_EQEP1                                                                                
a66431fc  tisci_if_EQEP2                                                                                
a6643200  tisci_if_GPIO0                                                                                
a6643204  tisci_if_GPIO2                                                                                
a6643208  tisci_if_GPIO4                                                                                
a664320c  tisci_if_GPIO6                                                                                
a6641be8  tisci_if_GPIOMUX_INTRTR0                                                                      
a6643210  tisci_if_GPMC0                                                                                
a6643214  tisci_if_GTC0                                                                                 
a6643218  tisci_if_I2C0                                                                                 
a664321c  tisci_if_I2C1                                                                                 
a6643220  tisci_if_I2C2                                                                                 
a6643224  tisci_if_I2C3                                                                                 
a6643228  tisci_if_I2C4                                                                                 
a664322c  tisci_if_I2C5                                                                                 
a6643230  tisci_if_I2C6                                                                                 
a6643234  tisci_if_J7AEP_GPU_BXS464_WRAP0                                                               
a6643238  tisci_if_J7AEP_GPU_BXS464_WRAP0_GPU_SS_0                                                      
a6642aa8  tisci_if_MAIN2MCU_LVL_INTRTR0                                                                 
a6642ab0  tisci_if_MAIN2MCU_PLS_INTRTR0                                                                 
a6642ab8  tisci_if_MCAN0                                                                                
a6642b00  tisci_if_MCAN1                                                                                
a6642ac0  tisci_if_MCAN10                                                                               
a6642ac8  tisci_if_MCAN11                                                                               
a6642ad0  tisci_if_MCAN12                                                                               
a6642ad8  tisci_if_MCAN13                                                                               
a6642ae0  tisci_if_MCAN14                                                                               
a6642ae8  tisci_if_MCAN15                                                                               
a6642af0  tisci_if_MCAN16                                                                               
a6642af8  tisci_if_MCAN17                                                                               
a6642b08  tisci_if_MCAN2                                                                                
a6642b10  tisci_if_MCAN3                                                                                
a6642b18  tisci_if_MCAN4                                                                                
a6642b20  tisci_if_MCAN5                                                                                
a6642b28  tisci_if_MCAN6                                                                                
a6642b30  tisci_if_MCAN7                                                                                
a6642b38  tisci_if_MCAN8                                                                                
a6642b40  tisci_if_MCAN9                                                                                
a6642b48  tisci_if_MCASP0                                                                               
a6642b50  tisci_if_MCASP1                                                                               
a6642b58  tisci_if_MCASP2                                                                               
a6642b60  tisci_if_MCASP3                                                                               
a6642b68  tisci_if_MCASP4                                                                               
a664323c  tisci_if_MCSPI0                                                                               
a6643240  tisci_if_MCSPI1                                                                               
a6643244  tisci_if_MCSPI2                                                                               
a6643248  tisci_if_MCSPI3                                                                               
a664324c  tisci_if_MCSPI4                                                                               
a6643250  tisci_if_MCSPI5                                                                               
a6643254  tisci_if_MCSPI6                                                                               
a6643258  tisci_if_MCSPI7                                                                               
a6641ef8  tisci_if_MCU_CPSW0                                                                            
a6642b70  tisci_if_MCU_NAVSS0_INTR_ROUTER_0                                                             
a6641f3c  tisci_if_MCU_NAVSS0_MCRC_0                                                                    
a664325c  tisci_if_MCU_NAVSS0_UDMASS_INTA_0                                                             
a6641dec  tisci_if_MCU_SA3_SS0_INTAGGR_0                                                                
a6643260  tisci_if_MMCSD0                                                                               
a6643264  tisci_if_MMCSD1                                                                               
a6641e0c  tisci_if_NAVSS0                                                                               
a6643268  tisci_if_NAVSS0_CPTS_0                                                                        
a6641c5c  tisci_if_NAVSS0_INTR_0                                                                        
a6642b78  tisci_if_NAVSS0_MAILBOX1_0                                                                    
a6642b90  tisci_if_NAVSS0_MAILBOX1_1                                                                    
a6642b80  tisci_if_NAVSS0_MAILBOX1_10                                                                   
a6642b88  tisci_if_NAVSS0_MAILBOX1_11                                                                   
a6642b98  tisci_if_NAVSS0_MAILBOX1_2                                                                    
a6642ba0  tisci_if_NAVSS0_MAILBOX1_3                                                                    
a6642ba8  tisci_if_NAVSS0_MAILBOX1_4                                                                    
a6642bb0  tisci_if_NAVSS0_MAILBOX1_5                                                                    
a6642bb8  tisci_if_NAVSS0_MAILBOX1_6                                                                    
a6642bc0  tisci_if_NAVSS0_MAILBOX1_7                                                                    
a6642bc8  tisci_if_NAVSS0_MAILBOX1_8                                                                    
a6642bd0  tisci_if_NAVSS0_MAILBOX1_9                                                                    
a6642bd8  tisci_if_NAVSS0_MAILBOX_0                                                                     
a6642bf0  tisci_if_NAVSS0_MAILBOX_1                                                                     
a6642be0  tisci_if_NAVSS0_MAILBOX_10                                                                    
a6642be8  tisci_if_NAVSS0_MAILBOX_11                                                                    
a6642bf8  tisci_if_NAVSS0_MAILBOX_2                                                                     
a6642c00  tisci_if_NAVSS0_MAILBOX_3                                                                     
a6642c08  tisci_if_NAVSS0_MAILBOX_4                                                                     
a6642c10  tisci_if_NAVSS0_MAILBOX_5                                                                     
a6642c18  tisci_if_NAVSS0_MAILBOX_6                                                                     
a6642c20  tisci_if_NAVSS0_MAILBOX_7                                                                     
a6642c28  tisci_if_NAVSS0_MAILBOX_8                                                                     
a6642c30  tisci_if_NAVSS0_MAILBOX_9                                                                     
a6641f48  tisci_if_NAVSS0_MCRC_0                                                                        
a664326c  tisci_if_NAVSS0_MODSS_INTA_0                                                                  
a6643270  tisci_if_NAVSS0_MODSS_INTA_1                                                                  
a6643274  tisci_if_NAVSS0_PVU_0                                                                         
a6643278  tisci_if_NAVSS0_PVU_1                                                                         
a664327c  tisci_if_NAVSS0_UDMASS_INTA_0                                                                 
a6641ba8  tisci_if_PCIE1                                                                                
a6642c38  tisci_if_SA2_UL0                                                                              
a6643280  tisci_if_TIMER0                                                                               
a6643294  tisci_if_TIMER1                                                                               
a6643284  tisci_if_TIMER10                                                                              
a6643288  tisci_if_TIMER11                                                                              
a664328c  tisci_if_TIMER12                                                                              
a6643290  tisci_if_TIMER13                                                                              
a6642c40  tisci_if_TIMER14                                                                              
a6642c48  tisci_if_TIMER15                                                                              
a6642c50  tisci_if_TIMER16                                                                              
a6642c58  tisci_if_TIMER17                                                                              
a6642c60  tisci_if_TIMER18                                                                              
a6642c68  tisci_if_TIMER19                                                                              
a6643298  tisci_if_TIMER2                                                                               
a664329c  tisci_if_TIMER3                                                                               
a66432a0  tisci_if_TIMER4                                                                               
a66432a4  tisci_if_TIMER5                                                                               
a66432a8  tisci_if_TIMER6                                                                               
a66432ac  tisci_if_TIMER7                                                                               
a66432b0  tisci_if_TIMER8                                                                               
a66432b4  tisci_if_TIMER9                                                                               
a6641c94  tisci_if_TIMESYNC_INTRTR0                                                                     
a66432b8  tisci_if_UART0                                                                                
a66432bc  tisci_if_UART1                                                                                
a66432c0  tisci_if_UART2                                                                                
a66432c4  tisci_if_UART3                                                                                
a66432c8  tisci_if_UART4                                                                                
a66432cc  tisci_if_UART5                                                                                
a66432d0  tisci_if_UART6                                                                                
a66432d4  tisci_if_UART7                                                                                
a66432d8  tisci_if_UART8                                                                                
a66432dc  tisci_if_UART9                                                                                
a6641f54  tisci_if_USB0                                                                                 
a66432e0  tisci_if_VPAC0                                                                                
a6641e78  tisci_if_VUSR_DUAL0                                                                           
a66432e4  tisci_if_WKUP_GPIO0                                                                           
a66432e8  tisci_if_WKUP_GPIO1                                                                           
a6641d30  tisci_if_WKUP_GPIOMUX_INTRTR0                                                                 
a66327e0  uiPortGetRunTimeCounterValue                                                                  
a663f154  ulCriticalNesting                                                                             
a663f15c  ulPortInterruptNesting                                                                        
a663f160  ulPortSchedularRunning                                                                        
a663f1cc  ulPortTaskHasFPUContext                                                                       
a663f158  ulPortYieldRequired                                                                           
a66326c0  ulTaskGetIdleRunTimeCounter                                                                   
a6631438  uxListRemove                                                                                  
a6630254  uxPortGetTimeInUsec                                                                           
a66432ec  uxTopUsedPriority                                                                             
a663213c  vApplicationGetIdleTaskMemory                                                                 
a6632160  vApplicationGetTimerTaskMemory                                                                
a663277c  vApplicationIdleHook                                                                          
a6631890  vApplicationLoadHook                                                                          
a6631fcc  vApplicationStackOverflowHook                                                                 
a6632184  vListInitialise                                                                               
a66327ec  vListInitialiseItem                                                                           
a6630994  vListInsert                                                                                   
a6631c54  vListInsertEnd                                                                                
a6632898  vPortConfigTimerForRunTimeStats                                                               
a663289c  vPortEndScheduler                                                                             
a6631478  vPortEnterCritical                                                                            
a6630f80  vPortExitCritical                                                                             
a662dfac  vPortFree                                                                                     
00000040  vPortRestoreTaskContext                                                                       
a6631de4  vPortTimerTickHandler                                                                         
a66328a4  vPortValidateInterruptPriority                                                                
a6632544  vPortYeildFromISR                                                                             
a6631ad0  vQueueAddToRegistry                                                                           
a66314b8  vQueueDelete                                                                                  
a6631624  vQueueUnregisterQueue                                                                         
a6630500  vQueueWaitForMessageRestricted                                                                
a66302b8  vTaskDelay                                                                                    
a663255c  vTaskEndScheduler                                                                             
a662d0c8  vTaskGetInfo                                                                                  
a6632400  vTaskInternalSetTimeOutState                                                                  
a66326d4  vTaskMissedYield                                                                              
a6630c1c  vTaskPlaceOnEventList                                                                         
a66309ec  vTaskPlaceOnEventListRestricted                                                               
a662cdf8  vTaskPriorityDisinheritAfterTimeout                                                           
a662db10  vTaskStartScheduler                                                                           
a662c5dc  vTaskSuspend                                                                                  
a6632574  vTaskSuspendAll                                                                               
a662c164  vTaskSwitchContext                                                                            
a663e91c  vint_usage_count_MCU_NAVSS0_UDMASS_INTA_0                                                     
a663f18c  vint_usage_count_MCU_SA3_SS0_INTAGGR_0                                                        
a663ef44  vint_usage_count_NAVSS0_MODSS_INTA_0                                                          
a663ef84  vint_usage_count_NAVSS0_MODSS_INTA_1                                                          
a663ea1c  vint_usage_count_NAVSS0_UDMASS_INTA_0                                                         
a663f144  virtio_cnt                                                                                    
a663031c  vsnprintf                                                                                     
a6630fc8  vsprintf                                                                                      
a663228c  wcslen                                                                                        
a663258c  xPortInIsrContext                                                                             
a662de28  xPortStartScheduler                                                                           
a662ffe8  xQueueCreateCountingSemaphoreStatic                                                           
a662d1b0  xQueueGenericCreateStatic                                                                     
a662ecec  xQueueGenericReset                                                                            
a6629fcc  xQueueGenericSend                                                                             
a662c3a8  xQueueGenericSendFromISR                                                                      
a662cc0c  xQueueGiveFromISR                                                                             
a662a724  xQueueReceive                                                                                 
a662d298  xQueueReceiveFromISR                                                                          
a6623648  xQueueRegistry                                                                                
a662956c  xQueueSemaphoreTake                                                                           
a662e35c  xTaskCheckForTimeOut                                                                          
a662da40  xTaskCreateStatic                                                                             
a6631ff4  xTaskGetSchedulerState                                                                        
a66322ac  xTaskGetTickCount                                                                             
a662b7c0  xTaskIncrementTick                                                                            
a662d460  xTaskPriorityDisinherit                                                                       
a662ceec  xTaskPriorityInherit                                                                          
a662e858  xTaskRemoveFromEventList                                                                      
a662bf10  xTaskResumeAll                                                                                
a662ec48  xTimerCreateTimerTask                                                                         
a662f098  xTimerGenericCommand                                                                          


GLOBAL SYMBOLS: SORTED BY Symbol Address 

address   name                                                                                          
-------   ----                                                                                          
00000000  __TI_static_base__                                                                            
00000000  _freertosresetvectors                                                                         
00000040  vPortRestoreTaskContext                                                                       
00000084  HwiP_svc_handler                                                                              
00000100  __ABORT_STACK_SIZE                                                                            
00000100  __FIQ_STACK_SIZE                                                                              
00000100  __SVC_STACK_SIZE                                                                              
00000100  __UND_STACK_SIZE                                                                              
0000010c  HwiP_irq_handler                                                                              
00000244  HwiP_data_abort_handler                                                                       
00000294  HwiP_fiq_handler                                                                              
00000364  HwiP_irq_handler_c                                                                            
00000400  HwiP_reserved_handler                                                                         
00000420  HwiP_undefined_handler                                                                        
00000440  HwiP_prefetch_abort_handler                                                                   
00000460  HwiP_data_abort_handler_c                                                                     
000004d0  CSL_armR5MPUCfg                                                                               
000005c0  __mpu_init                                                                                    
0000067c  CSL_armR5StartupGetCpuID                                                                      
000006a4  CSL_startupVimSetIntrEnable                                                                   
000006fc  CSL_startupVimClrIntrPending                                                                  
0000073c  _system_pre_init                                                                              
00000748  CSL_armR5StartupCacheEnableAllCache                                                           
0000075c  CSL_armR5StartupCacheEnableForceWrThru                                                        
0000077c  CSL_armR5StartupCacheEnableICache                                                             
000007ac  CSL_armR5StartupCacheEnableDCache                                                             
000007dc  CSL_armR5StartupCacheInvalidateAllIcache                                                      
000007f4  CSL_armR5StartupCacheInvalidateAllDcache                                                      
0000080c  CSL_armR5StartupCacheInvalidateAllCache                                                       
00000820  CSL_armR5StartupMpuEnable                                                                     
00000848  CSL_armR5StartupMpuCfgRegion                                                                  
00000864  CSL_armR5StartupReadMpidrReg                                                                  
00000870  CSL_armR5StartupFpuEnable                                                                     
00000898  CSL_armR5StartupIntrEnableVic                                                                 
000008bc  CSL_armR5StartupIntrEnableFiq                                                                 
000008dc  CSL_armR5StartupIntrEnableIrq                                                                 
000008fc  CSL_armR5SetDLFOBit                                                                           
00000c44  _c_int00                                                                                      
00000d1c  HF                                                                                            
00001000  __IRQ_STACK_SIZE                                                                              
00004000  __STACK_SIZE                                                                                  
00008000  __SYSMEM_SIZE                                                                                 
a6100000  __RESOURCE_TABLE                                                                              
a6100000  ti_ipc_remoteproc_ResourceTable                                                               
a6100400  Ipc_traceBuffer                                                                               
a6400000  __start___llvm_prf_cnts                                                                       
a6400000  __stop___llvm_prf_cnts                                                                        
a6400000  gCntrlBuf                                                                                     
a6421100  g_sendBuf                                                                                     
a65add00  g_rspBuf                                                                                      
a65eff00  sysVqBuf                                                                                      
a65f098c  __TI_Handler_Table_Base                                                                       
a65f0998  __TI_Handler_Table_Limit                                                                      
a65f09a8  __TI_CINIT_Base                                                                               
a65f09c0  __TI_CINIT_Limit                                                                              
a65f09c0  __TI_CINIT_Warm                                                                               
a65f2000  g_taskStackBuf                                                                                
a6621f18  g_ipc_mBoxData                                                                                
a6623648  xQueueRegistry                                                                                
a66237b8  gRovDummyQueue                                                                                
a6623808  gIpcRProcIdToMBoxDataMap                                                                      
a6623868  gTimerCntrl                                                                                   
a662388c  gVimBaseAddr                                                                                  
a6623890  __TI_scanfi                                                                                   
a6624c44  __TI_printfi                                                                                  
a6626378  TimerP_create                                                                                 
a66268c8  strtod                                                                                        
a66268c8  strtold                                                                                       
a6626d8c  Sciclient_serviceSecureProxy                                                                  
a662756c  Sciclient_rmProgramInterruptRoute                                                             
a6627b88  CSL_armR5Dsb                                                                                  
a6627b90  CSL_armR5FpuEnable                                                                            
a6627bb8  CSL_armR5IntrEnableFiq                                                                        
a6627bd8  CSL_armR5IntrEnableIrq                                                                        
a6627bf8  CSL_armR5IntrEnableVic                                                                        
a6627c1c  CSL_armR5CacheEnableICache                                                                    
a6627c4c  CSL_armR5CacheEnableDCache                                                                    
a6627c7c  CSL_armR5CacheGetIcacheLineSize                                                               
a6627c98  CSL_armR5CacheGetDcacheLineSize                                                               
a6627cb4  CSL_armR5CacheEnableAllCache                                                                  
a6627cc8  CSL_armR5CacheInvalidateAllIcache                                                             
a6627ce0  CSL_armR5CacheInvalidateAllDcache                                                             
a6627cf8  CSL_armR5CacheInvalidateAllCache                                                              
a6627d0c  CSL_armR5CacheInvalidateIcacheMva                                                             
a6627d1c  CSL_armR5CacheInvalidateDcacheMva                                                             
a6627d2c  CSL_armR5CacheInvalidateDcacheSetWay                                                          
a6627d50  CSL_armR5CacheCleanDcacheMva                                                                  
a6627d60  CSL_armR5CacheCleanDcacheSetWay                                                               
a6627d84  CSL_armR5CacheCleanInvalidateDcacheMva                                                        
a6627d8c  CSL_armR5CacheCleanInvalidateDcacheSetWay                                                     
a6627db0  CSL_armR5CacheEnableForceWrThru                                                               
a6627dd0  CSL_armR5CacheDisableEcc                                                                      
a6627e04  CSL_armR5CacheEnableAxiAccess                                                                 
a6627e14  CSL_armR5ReadMpidrReg                                                                         
a6627e20  CSL_armR5GetCpsrRegVal                                                                        
a6627e30  CSL_armR5DisableIrqFiq                                                                        
a6627e44  CSL_armR5EnableIrqFiq                                                                         
a6627e64  strtoll                                                                                       
a6628360  Sciclient_rmClearInterruptRoute                                                               
a66285d4  Ipc_echo_test                                                                                 
a662882c  Sciclient_init                                                                                
a6628a70  rpmsg_responderFxn                                                                            
a6628cac  RPMessage_init                                                                                
a6629110  rpmsg_senderFxn                                                                               
a6629340  Ipc_mailboxRegister                                                                           
a662956c  xQueueSemaphoreTake                                                                           
a66299b0  strtoull                                                                                      
a6629bd0  strtol                                                                                        
a6629dd4  RPMessage_getRemoteEndPtToken                                                                 
a6629fcc  xQueueGenericSend                                                                             
a662a1c0  strtoul                                                                                       
a662a390  __aeabi_uidiv                                                                                 
a662a390  __udivsi3                                                                                     
a662a560  RPMessage_send                                                                                
a662a724  xQueueReceive                                                                                 
a662a8d4  OsalArch_HwiPCreate                                                                           
a662ac1c  RPMessage_recv                                                                                
a662af4c  TaskP_create                                                                                  
a662b0d8  memcpy                                                                                        
a662b258  SemaphoreP_create                                                                             
a662b674  CacheP_Inv                                                                                    
a662b7c0  xTaskIncrementTick                                                                            
a662b904  DebugP_log1                                                                                   
a662b908  ldexp                                                                                         
a662b908  ldexpl                                                                                        
a662b908  scalbn                                                                                        
a662b908  scalbnl                                                                                       
a662ba48  Virtio_create                                                                                 
a662bb7c  RPMessage_announce                                                                            
a662bcac  VirtioIPC_createVirtioCorePair                                                                
a662bddc  HwiP_clearInterrupt                                                                           
a662bf10  xTaskResumeAll                                                                                
a662c164  vTaskSwitchContext                                                                            
a662c288  LoadP_update                                                                                  
a662c3a8  xQueueGenericSendFromISR                                                                      
a662c5dc  vTaskSuspend                                                                                  
a662c6f4  __udivmoddi4                                                                                  
a662c80c  RPMessage_delete                                                                              
a662c918  TimerP_start                                                                                  
a662cc0c  xQueueGiveFromISR                                                                             
a662cd04  pxPortInitialiseStack                                                                         
a662cdf8  vTaskPriorityDisinheritAfterTimeout                                                           
a662ceec  xTaskPriorityInherit                                                                          
a662cfe0  Sciclient_serviceGetThreadIds                                                                 
a662d0c8  vTaskGetInfo                                                                                  
a662d1b0  xQueueGenericCreateStatic                                                                     
a662d298  xQueueReceiveFromISR                                                                          
a662d380  Ipc_init                                                                                      
a662d460  xTaskPriorityDisinherit                                                                       
a662d540  Sciclient_sendMessage                                                                         
a662d6f4  Ipc_mailboxSend                                                                               
a662d7c8  Ipc_updateVirtioInfo                                                                          
a662da40  xTaskCreateStatic                                                                             
a662db10  vTaskStartScheduler                                                                           
a662dbdc  Ipc_getIntNumRange                                                                            
a662dca0  Ipc_setCoreEventId                                                                            
a662de28  xPortStartScheduler                                                                           
a662deec  Sciclient_servicePrepareHeader                                                                
a662dfac  vPortFree                                                                                     
a662e06c  Ipc_mailboxInternalCallback                                                                   
a662e128  Sciclient_rmTranslateIntOutput                                                                
a662e1e4  VirtioIPC_init                                                                                
a662e35c  xTaskCheckForTimeOut                                                                          
a662e418  IpcOsalPrms_init                                                                              
a662e6f4  eTaskGetState                                                                                 
a662e7a8  IpcUtils_HeapCreate                                                                           
a662e858  xTaskRemoveFromEventList                                                                      
a662e908  __TI_decompress_lzss                                                                          
a662e9b4  Intc_IntRegister                                                                              
a662ea5c  Ipc_Trace_printf                                                                              
a662eb00  TIMERModeConfigure                                                                            
a662ec48  xTimerCreateTimerTask                                                                         
a662ecec  xQueueGenericReset                                                                            
a662ed8c  memset                                                                                        
a662ee2c  CSL_vimCfgIntr                                                                                
a662eec8  Sciclient_rmGetResourceRange                                                                  
a662ef64  SystemP_printf                                                                                
a662f098  xTimerGenericCommand                                                                          
a662f1c4  Ipc_mpSetConfig                                                                               
a662f2dc  Sciclient_rmIrqReleaseRaw                                                                     
a662f368  Sciclient_rmIrqSetRaw                                                                         
a662f3f4  TimerP_stop                                                                                   
a662f480  Ipc_initVirtIO                                                                                
a662f508  __TI_ltoa                                                                                     
a662f618  Osal_RegisterInterrupt                                                                        
a662f720  Sciclient_abiCheck                                                                            
a662f7a0  Sciclient_serviceGetPayloadSize                                                               
a662f820  Virtio_getAvailBuf                                                                            
a662f920  Virtio_addAvailBuf                                                                            
a662f99c  HwiP_disableInterrupt                                                                         
a662f9a0  frexp                                                                                         
a662f9a0  frexpl                                                                                        
a662fa1c  SemaphoreP_pend                                                                               
a662fb84  SemaphoreP_constructBinary                                                                    
a662fbf8  VirtioIPC_getVirtQueues                                                                       
a662fce0  snprintf                                                                                      
a662fd54  Ipc_physToVirt                                                                                
a662fdc4  Ipc_virtToPhys                                                                                
a662fe34  Mailbox_plugInterrupt                                                                         
a662fea4  Intc_Init                                                                                     
a662ff10  SemaphoreP_delete                                                                             
a662ff7c  atoi                                                                                          
a662ffe8  xQueueCreateCountingSemaphoreStatic                                                           
a6630054  Ipc_sciclientIrqSet                                                                           
a66300bc  SemaphoreP_post                                                                               
a663018c  Ipc_sciclientIrqRelease                                                                       
a6630254  uxPortGetTimeInUsec                                                                           
a66302b8  vTaskDelay                                                                                    
a663031c  vsnprintf                                                                                     
a6630380  Ipc_mpGetName                                                                                 
a66303e0  LoadP_addTask                                                                                 
a6630440  TimerP_Params_init                                                                            
a66304a0  main                                                                                          
a6630500  vQueueWaitForMessageRestricted                                                                
a6630560  CSL_vimGetActivePendingIntr                                                                   
a66305bc  Ipc_getMailboxInfoTx                                                                          
a6630674  TIMERReset                                                                                    
a66306d0  __TI_auto_init_nobinit_nopinit                                                                
a663072c  Ipc_getMailboxInfoRx                                                                          
a6630784  RPMessage_create                                                                              
a66307dc  TimerP_updateDefaultInfoTbl                                                                   
a6630834  Virtio_getUsedBuf                                                                             
a6630994  vListInsert                                                                                   
a66309ec  vTaskPlaceOnEventListRestricted                                                               
a6630a98  Sciclient_getCurrentContext                                                                   
a6630b38  IpcUtils_HeapAlloc                                                                            
a6630bd0  sscanf                                                                                        
a6630c1c  vTaskPlaceOnEventList                                                                         
a6630c68  CSL_vimClrIntrPending                                                                         
a6630cb0  CSL_vimSetIntrEnable                                                                          
a6630cf8  IpcInitPrms_init                                                                              
a6630d40  Ipc_isRemoteReady                                                                             
a6630d88  Sciclient_flush                                                                               
a6630e60  Virtio_kick                                                                                   
a6630ea8  ipc_initSciclient                                                                             
a6630ef0  memccpy                                                                                       
a6630f80  vPortExitCritical                                                                             
a6630fc8  vsprintf                                                                                      
a6631010  IpcUtils_HeapFree                                                                             
a6631054  Ipc_getMailboxIntrRouterCfg                                                                   
a6631098  Ipc_isRemoteVirtioCreated                                                                     
a66310dc  Ipc_mailboxEnableNewMsgInt                                                                    
a6631120  Osal_RegisterInterrupt_initParams                                                             
a6631164  TIMERCounterGet2                                                                              
a66311a8  TIMERDisable                                                                                  
a66311ec  TIMEREnable                                                                                   
a6631230  TIMERReloadGet2                                                                               
a66312b8  SemaphoreP_constructCounting                                                                  
a66312f8  TIMERCompareSet                                                                               
a6631338  TIMERCounterSet                                                                               
a6631378  TIMERReloadSet                                                                                
a66313b8  Virtio_isr                                                                                    
a6631438  uxListRemove                                                                                  
a6631478  vPortEnterCritical                                                                            
a66314b8  vQueueDelete                                                                                  
a66314f8  HwiP_create                                                                                   
a6631534  Ipc_allocVirtio                                                                               
a6631570  SemaphoreP_Params_init                                                                        
a66315ac  TaskP_getFreertosHandle                                                                       
a66315e8  Virtio_prime                                                                                  
a6631624  vQueueUnregisterQueue                                                                         
a6631660  CSL_armR5CacheInv                                                                             
a6631698  CSL_vimAckIntr                                                                                
a66316d0  CSL_vimGetIntrType                                                                            
a6631778  Sciclient_waitThread                                                                          
a66317b0  TIMERPostedModeConfig                                                                         
a66317e8  TaskP_Function                                                                                
a6631820  Virtio_addUsedBuf                                                                             
a6631890  vApplicationLoadHook                                                                          
a66318c8  HwiP_restore                                                                                  
a66318fc  Intc_IntClrPend                                                                               
a6631930  IpcUtils_Qput                                                                                 
a6631998  Ipc_sciclientIrqTranslate                                                                     
a66319cc  TIMERReadModeConfig                                                                           
a6631a00  TaskP_Params_init                                                                             
a6631ad0  vQueueAddToRegistry                                                                           
a6631b04  HwiP_disable                                                                                  
a6631b34  IpcUtils_Qcreate                                                                              
a6631b94  TimerP_getCount                                                                               
a6631bc4  TimerP_getReloadCount                                                                         
a6631c54  vListInsertEnd                                                                                
a6631c84  Intc_IntPrioritySet                                                                           
a6631cb0  IpcUtils_QgetHead                                                                             
a6631cdc  Osal_delay                                                                                    
a6631d08  Osal_getThreadType                                                                            
a6631d34  RPMessageParams_init                                                                          
a6631d60  Sciclient_configPrmsInit                                                                      
a6631d8c  Sciclient_readThread32                                                                        
a6631de4  vPortTimerTickHandler                                                                         
a6631e10  __aeabi_idiv                                                                                  
a6631e10  __divsi3                                                                                      
a6631e3c  CSL_armR5GetCpuID                                                                             
a6631e64  IpcUtils_QgetHeadNode                                                                         
a6631e8c  Ipc_mpGetRemoteProcId                                                                         
a6631eb4  TIMERIntDisable                                                                               
a6631edc  TIMERIntEnable                                                                                
a6631f04  TIMERIntStatusClear                                                                           
a6631f2c  TimerP_mapId                                                                                  
a6631f54  Virtio_setCallback                                                                            
a6631f7c  pvTaskIncrementMutexHeldCount                                                                 
a6631fcc  vApplicationStackOverflowHook                                                                 
a6631ff4  xTaskGetSchedulerState                                                                        
a663201c  Intc_IntDisable                                                                               
a6632040  Intc_IntEnable                                                                                
a6632064  Ipc_getCoreName                                                                               
a66320ac  Sciclient_readThreadCount                                                                     
a66320d0  Sciclient_verifyThread                                                                        
a66320f4  Virtio_isRemoteLinux                                                                          
a663213c  vApplicationGetIdleTaskMemory                                                                 
a6632160  vApplicationGetTimerTaskMemory                                                                
a6632184  vListInitialise                                                                               
a66321a8  __aeabi_uldivmod                                                                              
a66321cc  HwiP_Params_init                                                                              
a66321ec  IpcUtils_Init                                                                                 
a663220c  MailboxGetMessage                                                                             
a663222c  Osal_DebugP_assert                                                                            
a663224c  Osal_DebugP_assert_fcn                                                                        
a663226c  _args_main                                                                                    
a663228c  wcslen                                                                                        
a66322ac  xTaskGetTickCount                                                                             
a66322cc  IpcUtils_Qremove                                                                              
a66322e8  Ipc_getMailboxBaseAddr                                                                        
a6632304  Ipc_mailboxModuleStartup                                                                      
a663233c  MailboxGetRawNewMsgStatus                                                                     
a6632358  MailboxSendMessage                                                                            
a6632374  RPMessage_getRemoteEndPt                                                                      
a6632400  vTaskInternalSetTimeOutState                                                                  
a6632438  __aeabi_memset                                                                                
a6632438  __aeabi_memset4                                                                               
a6632438  __aeabi_memset8                                                                               
a6632448  __aeabi_memclr                                                                                
a6632448  __aeabi_memclr4                                                                               
a6632448  __aeabi_memclr8                                                                               
a6632454  Intc_IntSetSrcType                                                                            
a663246c  Intc_SystemDisable                                                                            
a6632484  Intc_SystemEnable                                                                             
a663249c  IpcUtils_HeapDelete                                                                           
a66324b4  MailboxClrNewMsgStatus                                                                        
a66324cc  MailboxDisableNewMsgInt                                                                       
a66324e4  MailboxEnableNewMsgInt                                                                        
a66324fc  Sciclient_threadStatusReg                                                                     
a663252c  _system_post_cinit                                                                            
a6632544  vPortYeildFromISR                                                                             
a663255c  vTaskEndScheduler                                                                             
a6632574  vTaskSuspendAll                                                                               
a663258c  xPortInIsrContext                                                                             
a66325a4  __TI_zero_init                                                                                
a66325bc  CSL_secProxyGetDataAddr                                                                       
a66325d0  IpcUtils_Qdelete                                                                              
a66325e4  IpcUtils_QisEmpty                                                                             
a66325f8  Ipc_loadResourceTable                                                                         
a6632648  Sciclient_rmIrqRelease                                                                        
a663265c  Virtio_getHandle                                                                              
a6632698  osalArch_Init                                                                                 
a66326c0  ulTaskGetIdleRunTimeCounter                                                                   
a66326d4  vTaskMissedYield                                                                              
a66326e8  __TI_decompress_none                                                                          
a66326fc  CSL_vimGetFiqVectorAddress                                                                    
a663271c  IpcUtils_Qnext                                                                                
a663272c  Ipc_mpGetNumProcessors                                                                        
a663273c  Ipc_mpGetSelfId                                                                               
a663274c  Ipc_mpGetSelfName                                                                             
a663277c  vApplicationIdleHook                                                                          
a663278c  MailboxGetMessageCount                                                                        
a6632798  Sciclient_service                                                                             
a66327a4  TIMERIntStatusGet                                                                             
a66327b0  TIMERWritePostedStatusGet                                                                     
a66327bc  TimerP_getDefaultFreqLo                                                                       
a66327c8  __aeabi_errno_addr                                                                            
a66327d4  getIpcObjInst                                                                                 
a66327e0  uiPortGetRunTimeCounterValue                                                                  
a66327ec  vListInitialiseItem                                                                           
a66327f8  Ipc_getVqObjMemoryRequiredPerCore                                                             
a6632810  OsalArch_clearInterrupt                                                                       
a6632818  OsalArch_disableInterrupt                                                                     
a6632820  OsalArch_enableInterrupt                                                                      
a6632828  Osal_ClearInterrupt                                                                           
a6632830  Osal_DisableInterrupt                                                                         
a6632838  Osal_EnableInterrupt                                                                          
a6632840  TimerP_getDefaultFreqHi                                                                       
a6632848  Virtio_getProcId                                                                              
a6632850  Virtio_isReady                                                                                
a6632858  C$$EXIT                                                                                       
a6632858  abort                                                                                         
a6632860  HwiP_enableInterrupt                                                                          
a6632864  Intc_SystemRestore                                                                            
a6632878  OS_init                                                                                       
a663287c  OS_start                                                                                      
a6632880  OS_stop                                                                                       
a6632884  OsalArch_globalDisableInterrupt                                                               
a6632888  OsalArch_globalRestoreInterrupt                                                               
a663288c  Sciclient_rmIrqSet                                                                            
a6632890  Sciclient_rmIrqTranslateIrOutput                                                              
a6632894  TaskP_sleep                                                                                   
a6632898  vPortConfigTimerForRunTimeStats                                                               
a663289c  vPortEndScheduler                                                                             
a66328a0  __aeabi_idiv0                                                                                 
a66328a4  vPortValidateInterruptPriority                                                                
a66328a8  __aeabi_memcpy                                                                                
a66328a8  __aeabi_memcpy4                                                                               
a66328a8  __aeabi_memcpy8                                                                               
a66328b0  __aeabi_ldiv0                                                                                 
a66328c0  _sys_memory                                                                                   
a663b900  argArray                                                                                      
a663c100  fxnArray                                                                                      
a663c900  intrSrcType                                                                                   
a663d100  gTimerStructs                                                                                 
a663d7e0  intrPri                                                                                       
a663e2e4  intrMap                                                                                       
a663e6dc  gDmTimerPInfoTbl                                                                              
a663e91c  vint_usage_count_MCU_NAVSS0_UDMASS_INTA_0                                                     
a663ea1c  vint_usage_count_NAVSS0_UDMASS_INTA_0                                                         
a663eb1c  gRmIrInstances                                                                                
a663ebdc  gRmIaInstances                                                                                
a663ee04  gSciclientHandle                                                                              
a663eeb0  g_exitRespTsk                                                                                 
a663eeb4  gRecvTaskBufIdx                                                                               
a663eeb8  rpmsgDataSize                                                                                 
a663eebc  service_ping                                                                                  
a663eee0  service_chrdev                                                                                
a663ef04  pxCurrentTCB                                                                                  
a663ef08  FreeRTOS_errno                                                                                
a663ef44  vint_usage_count_NAVSS0_MODSS_INTA_0                                                          
a663ef84  vint_usage_count_NAVSS0_MODSS_INTA_1                                                          
a663efc4  gSendTaskBufIdx                                                                               
a663f02c  gExptnHandlers                                                                                
a663f05c  g_Navss512MbInput                                                                             
a663f08c  remoteProc                                                                                    
a663f0c0  gOsal_HwAttrs                                                                                 
a663f0e0  gSciclient_secProxyCfg                                                                        
a663f118  gOsalSemAllocCnt                                                                              
a663f11c  gOsalSemPeak                                                                                  
a663f120  gOsalTimerAllocCnt                                                                            
a663f124  gOsalTimerPeak                                                                                
a663f128  gOsalHwiAllocCnt                                                                              
a663f12c  gOsalHwiPeak                                                                                  
a663f144  virtio_cnt                                                                                    
a663f154  ulCriticalNesting                                                                             
a663f158  ulPortYieldRequired                                                                           
a663f15c  ulPortInterruptNesting                                                                        
a663f160  ulPortSchedularRunning                                                                        
a663f174  gOsalTaskAllocCnt                                                                             
a663f178  gOsalTaskPeak                                                                                 
a663f18c  vint_usage_count_MCU_SA3_SS0_INTAGGR_0                                                        
a663f194  __aeabi_errno                                                                                 
a663f198  gIpcUtilsObj                                                                                  
a663f19c  gNumRemoteProc                                                                                
a663f1a0  g_ipc_mBoxCnt                                                                                 
a663f1a4  pCntrlBuf                                                                                     
a663f1a8  pRecvTaskBuf                                                                                  
a663f1ac  pRemoteProcArray                                                                              
a663f1b0  pSciclient_secProxyCfg                                                                        
a663f1b4  pSendTaskBuf                                                                                  
a663f1b8  pSysVqBuf                                                                                     
a663f1bc  pTaskBuf                                                                                      
a663f1c8  selfProcId                                                                                    
a663f1cc  ulPortTaskHasFPUContext                                                                       
a663f1d0  gOsalArchConfig                                                                               
a663f1d3  Osal_DebugP_Assert_Val                                                                        
a6640460  gSciclientMap                                                                                 
a6640eec  gCslR5MpuCfg                                                                                  
a66411ac  gRmIrqTree                                                                                    
a664156c  gRmIrqTreeCount                                                                               
a6641570  __aeabi_ctype_table_                                                                          
a6641570  __aeabi_ctype_table_C                                                                         
a6641b5c  tisci_if_CODEC0                                                                               
a6641ba8  tisci_if_PCIE1                                                                                
a6641be8  tisci_if_GPIOMUX_INTRTR0                                                                      
a6641c5c  tisci_if_NAVSS0_INTR_0                                                                        
a6641c94  tisci_if_TIMESYNC_INTRTR0                                                                     
a6641d30  tisci_if_WKUP_GPIOMUX_INTRTR0                                                                 
a6641dcc  tisci_if_CMPEVENT_INTRTR0                                                                     
a6641dec  tisci_if_MCU_SA3_SS0_INTAGGR_0                                                                
a6641e0c  tisci_if_NAVSS0                                                                               
a6641e2c  tisci_if_CPSW1                                                                                
a6641e60  tisci_if_DSS0                                                                                 
a6641e78  tisci_if_VUSR_DUAL0                                                                           
a6641ed8  tisci_if_DDR0                                                                                 
a6641ee8  tisci_if_DDR1                                                                                 
a6641ef8  tisci_if_MCU_CPSW0                                                                            
a6641f24  tisci_if_CSI_RX_IF0                                                                           
a6641f30  tisci_if_CSI_RX_IF1                                                                           
a6641f3c  tisci_if_MCU_NAVSS0_MCRC_0                                                                    
a6641f48  tisci_if_NAVSS0_MCRC_0                                                                        
a6641f54  tisci_if_USB0                                                                                 
a6641f68  CMPEVENT_INTRTR0_outp_0_3_to_COMPUTE_CLUSTER_J7AHP0_CLEC_0_soc_events_in_544_547              
a6641f70  CMPEVENT_INTRTR0_outp_0_3_to_COMPUTE_CLUSTER_J7AHP0_GIC500SS_0_spi_544_547                    
a6641f78  CMPEVENT_INTRTR0_outp_12_15_to_NAVSS0_UDMASS_INTA_0_intaggr_levi_pend_108_111                 
a6641f80  CMPEVENT_INTRTR0_outp_4_7_to_MAIN2MCU_PLS_INTRTR0_in_96_99                                    
a6641f88  CMPEVENT_INTRTR0_outp_8_11_to_R5FSS0_CORE0_intr_326_329                                       
a6641f90  CMPEVENT_INTRTR0_outp_8_11_to_R5FSS0_CORE1_intr_326_329                                       
a6641f98  CMPEVENT_INTRTR0_outp_8_11_to_R5FSS1_CORE0_intr_326_329                                       
a6641fa0  CMPEVENT_INTRTR0_outp_8_11_to_R5FSS1_CORE1_intr_326_329                                       
a6641fa8  CODEC0_vpu_wave521cl_intr_0_0_to_MAIN2MCU_LVL_INTRTR0_in_263_263                              
a6641fb0  CPSW1_cpts_comp_0_0_to_CMPEVENT_INTRTR0_in_11_11                                              
a6641fb8  CPSW1_cpts_genf0_1_1_to_TIMESYNC_INTRTR0_in_18_18                                             
a6641fc0  CPSW1_cpts_genf1_2_2_to_TIMESYNC_INTRTR0_in_19_19                                             
a6641fc8  CPSW1_cpts_sync_3_3_to_TIMESYNC_INTRTR0_in_39_39                                              
a6641fd0  CPSW1_evnt_pend_4_4_to_MAIN2MCU_LVL_INTRTR0_in_72_72                                          
a6641fd8  CPSW1_mdio_pend_5_5_to_MAIN2MCU_LVL_INTRTR0_in_71_71                                          
a6641fe0  CPSW1_stat_pend_6_6_to_MAIN2MCU_LVL_INTRTR0_in_70_70                                          
a6641fe8  CSI_RX_IF0_csi_err_irq_0_0_to_MAIN2MCU_LVL_INTRTR0_in_255_255                                 
a6641ff0  CSI_RX_IF0_csi_irq_1_1_to_MAIN2MCU_LVL_INTRTR0_in_254_254                                     
a6641ff8  CSI_RX_IF0_csi_level_2_2_to_MAIN2MCU_LVL_INTRTR0_in_256_256                                   
a6642000  CSI_RX_IF1_csi_err_irq_0_0_to_MAIN2MCU_LVL_INTRTR0_in_258_258                                 
a6642008  CSI_RX_IF1_csi_irq_1_1_to_MAIN2MCU_LVL_INTRTR0_in_257_257                                     
a6642010  CSI_RX_IF1_csi_level_2_2_to_MAIN2MCU_LVL_INTRTR0_in_259_259                                   
a6642018  CSI_TX_IF_V2_0_csi_interrupt_0_0_to_MAIN2MCU_LVL_INTRTR0_in_250_250                           
a6642020  CSI_TX_IF_V2_0_csi_level_1_1_to_MAIN2MCU_LVL_INTRTR0_in_251_251                               
a6642028  CSI_TX_IF_V2_1_csi_interrupt_0_0_to_MAIN2MCU_LVL_INTRTR0_in_248_248                           
a6642030  CSI_TX_IF_V2_1_csi_level_1_1_to_MAIN2MCU_LVL_INTRTR0_in_249_249                               
a6642038  DCC0_intr_done_level_0_0_to_MAIN2MCU_LVL_INTRTR0_in_88_88                                     
a6642040  DCC1_intr_done_level_0_0_to_MAIN2MCU_LVL_INTRTR0_in_89_89                                     
a6642048  DCC2_intr_done_level_0_0_to_MAIN2MCU_LVL_INTRTR0_in_90_90                                     
a6642050  DCC3_intr_done_level_0_0_to_MAIN2MCU_LVL_INTRTR0_in_91_91                                     
a6642058  DCC4_intr_done_level_0_0_to_MAIN2MCU_LVL_INTRTR0_in_92_92                                     
a6642060  DCC5_intr_done_level_0_0_to_MAIN2MCU_LVL_INTRTR0_in_93_93                                     
a6642068  DCC6_intr_done_level_0_0_to_MAIN2MCU_LVL_INTRTR0_in_94_94                                     
a6642070  DCC7_intr_done_level_0_0_to_MAIN2MCU_LVL_INTRTR0_in_95_95                                     
a6642078  DCC8_intr_done_level_0_0_to_MAIN2MCU_LVL_INTRTR0_in_208_208                                   
a6642080  DCC9_intr_done_level_0_0_to_MAIN2MCU_LVL_INTRTR0_in_209_209                                   
a6642088  DDR0_ddrss_controller_0_0_to_MAIN2MCU_LVL_INTRTR0_in_10_10                                    
a6642090  DDR0_ddrss_hs_phy_global_error_1_1_to_MAIN2MCU_LVL_INTRTR0_in_12_12                           
a6642098  DDR0_ddrss_pll_freq_change_req_2_2_to_MAIN2MCU_LVL_INTRTR0_in_9_9                             
a66420a0  DDR0_ddrss_v2a_other_err_lvl_3_3_to_MAIN2MCU_LVL_INTRTR0_in_11_11                             
a66420a8  DDR1_ddrss_controller_0_0_to_MAIN2MCU_LVL_INTRTR0_in_64_64                                    
a66420b0  DDR1_ddrss_hs_phy_global_error_1_1_to_MAIN2MCU_LVL_INTRTR0_in_66_66                           
a66420b8  DDR1_ddrss_pll_freq_change_req_2_2_to_MAIN2MCU_LVL_INTRTR0_in_63_63                           
a66420c0  DDR1_ddrss_v2a_other_err_lvl_3_3_to_MAIN2MCU_LVL_INTRTR0_in_65_65                             
a66420c8  DMPAC0_INTD_0_system_intr_level_0_1_to_MAIN2MCU_LVL_INTRTR0_in_268_269                        
a66420d0  DSS0_dss_inst0_dispc_func_irq_proc0_0_0_to_MAIN2MCU_LVL_INTRTR0_in_226_226                    
a66420d8  DSS0_dss_inst0_dispc_func_irq_proc1_1_1_to_MAIN2MCU_LVL_INTRTR0_in_227_227                    
a66420e0  DSS0_dss_inst0_dispc_safety_error_irq_proc0_2_2_to_MAIN2MCU_LVL_INTRTR0_in_230_230            
a66420e8  DSS0_dss_inst0_dispc_safety_error_irq_proc1_3_3_to_MAIN2MCU_LVL_INTRTR0_in_231_231            
a66420f0  DSS0_dss_inst0_dispc_secure_irq_proc0_4_4_to_MAIN2MCU_LVL_INTRTR0_in_228_228                  
a66420f8  DSS0_dss_inst0_dispc_secure_irq_proc1_5_5_to_MAIN2MCU_LVL_INTRTR0_in_229_229                  
a6642100  DSS_DSI0_dsi_0_func_intr_0_0_to_MAIN2MCU_LVL_INTRTR0_in_224_224                               
a6642108  DSS_DSI1_dsi_0_func_intr_0_0_to_MAIN2MCU_LVL_INTRTR0_in_225_225                               
a6642110  DSS_EDP0_intr_0_3_to_MAIN2MCU_LVL_INTRTR0_in_238_241                                          
a6642118  ECAP0_ecap_int_0_0_to_MAIN2MCU_PLS_INTRTR0_in_17_17                                           
a6642120  ECAP1_ecap_int_0_0_to_MAIN2MCU_PLS_INTRTR0_in_18_18                                           
a6642128  ECAP2_ecap_int_0_0_to_MAIN2MCU_PLS_INTRTR0_in_19_19                                           
a6642130  ELM0_elm_porocpsinterrupt_lvl_0_0_to_MAIN2MCU_LVL_INTRTR0_in_7_7                              
a6642138  EPWM0_epwm_etint_0_0_to_MAIN2MCU_PLS_INTRTR0_in_2_2                                           
a6642140  EPWM0_epwm_tripzint_1_1_to_MAIN2MCU_PLS_INTRTR0_in_8_8                                        
a6642148  EPWM1_epwm_etint_0_0_to_MAIN2MCU_PLS_INTRTR0_in_3_3                                           
a6642150  EPWM1_epwm_tripzint_1_1_to_MAIN2MCU_PLS_INTRTR0_in_9_9                                        
a6642158  EPWM2_epwm_etint_0_0_to_MAIN2MCU_PLS_INTRTR0_in_4_4                                           
a6642160  EPWM2_epwm_tripzint_1_1_to_MAIN2MCU_PLS_INTRTR0_in_10_10                                      
a6642168  EPWM3_epwm_etint_0_0_to_MAIN2MCU_PLS_INTRTR0_in_5_5                                           
a6642170  EPWM3_epwm_tripzint_1_1_to_MAIN2MCU_PLS_INTRTR0_in_11_11                                      
a6642178  EPWM4_epwm_etint_0_0_to_MAIN2MCU_PLS_INTRTR0_in_6_6                                           
a6642180  EPWM4_epwm_tripzint_1_1_to_MAIN2MCU_PLS_INTRTR0_in_12_12                                      
a6642188  EPWM5_epwm_etint_0_0_to_MAIN2MCU_PLS_INTRTR0_in_7_7                                           
a6642190  EPWM5_epwm_tripzint_1_1_to_MAIN2MCU_PLS_INTRTR0_in_13_13                                      
a6642198  EQEP0_eqep_int_0_0_to_MAIN2MCU_PLS_INTRTR0_in_14_14                                           
a66421a0  EQEP1_eqep_int_0_0_to_MAIN2MCU_PLS_INTRTR0_in_15_15                                           
a66421a8  EQEP2_eqep_int_0_0_to_MAIN2MCU_PLS_INTRTR0_in_16_16                                           
a66421b0  GPIO0_gpio_bank_0_7_to_GPIOMUX_INTRTR0_in_145_152                                             
a66421b8  GPIO2_gpio_bank_0_7_to_GPIOMUX_INTRTR0_in_154_161                                             
a66421c0  GPIO4_gpio_bank_0_7_to_GPIOMUX_INTRTR0_in_163_170                                             
a66421c8  GPIO6_gpio_bank_0_7_to_GPIOMUX_INTRTR0_in_172_179                                             
a66421d0  GPIOMUX_INTRTR0_outp_0_15_to_R5FSS0_CORE0_intr_396_411                                        
a66421d8  GPIOMUX_INTRTR0_outp_0_15_to_R5FSS0_CORE1_intr_396_411                                        
a66421e0  GPIOMUX_INTRTR0_outp_0_15_to_R5FSS1_CORE0_intr_396_411                                        
a66421e8  GPIOMUX_INTRTR0_outp_0_15_to_R5FSS1_CORE1_intr_396_411                                        
a66421f0  GPIOMUX_INTRTR0_outp_0_31_to_MAIN2MCU_PLS_INTRTR0_in_64_95                                    
a66421f8  GPIOMUX_INTRTR0_outp_0_7_to_ESM0_esm_pls_event0_664_671                                       
a6642200  GPIOMUX_INTRTR0_outp_0_7_to_ESM0_esm_pls_event1_672_679                                       
a6642208  GPIOMUX_INTRTR0_outp_0_7_to_ESM0_esm_pls_event2_680_687                                       
a6642210  GPIOMUX_INTRTR0_outp_16_31_to_NAVSS0_UDMASS_INTA_0_intaggr_levi_pend_116_131                  
a6642218  GPIOMUX_INTRTR0_outp_16_31_to_R5FSS0_CORE0_intr_176_191                                       
a6642220  GPIOMUX_INTRTR0_outp_16_31_to_R5FSS0_CORE1_intr_176_191                                       
a6642228  GPIOMUX_INTRTR0_outp_16_31_to_R5FSS1_CORE0_intr_176_191                                       
a6642230  GPIOMUX_INTRTR0_outp_16_31_to_R5FSS1_CORE1_intr_176_191                                       
a6642238  GPIOMUX_INTRTR0_outp_8_63_to_COMPUTE_CLUSTER_J7AHP0_CLEC_0_soc_events_in_392_447              
a6642240  GPIOMUX_INTRTR0_outp_8_63_to_COMPUTE_CLUSTER_J7AHP0_GIC500SS_0_spi_392_447                    
a6642248  GPMC0_gpmc_sinterrupt_0_0_to_MAIN2MCU_LVL_INTRTR0_in_8_8                                      
a6642250  GTC0_gtc_push_event_0_0_to_TIMESYNC_INTRTR0_in_1_1                                            
a6642258  I2C0_pointrpend_0_0_to_MAIN2MCU_LVL_INTRTR0_in_56_56                                          
a6642260  I2C1_pointrpend_0_0_to_MAIN2MCU_LVL_INTRTR0_in_57_57                                          
a6642268  I2C2_pointrpend_0_0_to_MAIN2MCU_LVL_INTRTR0_in_58_58                                          
a6642270  I2C3_pointrpend_0_0_to_MAIN2MCU_LVL_INTRTR0_in_59_59                                          
a6642278  I2C4_pointrpend_0_0_to_MAIN2MCU_LVL_INTRTR0_in_60_60                                          
a6642280  I2C5_pointrpend_0_0_to_MAIN2MCU_LVL_INTRTR0_in_61_61                                          
a6642288  I2C6_pointrpend_0_0_to_MAIN2MCU_LVL_INTRTR0_in_62_62                                          
a6642290  J7AEP_GPU_BXS464_WRAP0_GPU_SS_0_os_irq_0_3_to_MAIN2MCU_LVL_INTRTR0_in_312_315                 
a6642298  J7AEP_GPU_BXS464_WRAP0_gpu_pwrctrl_req_0_0_to_MAIN2MCU_LVL_INTRTR0_in_316_316                 
a66422a0  MAIN2MCU_LVL_INTRTR0_outl_0_63_to_MCU_R5FSS0_CORE0_intr_160_223                               
a66422a8  MAIN2MCU_LVL_INTRTR0_outl_0_63_to_MCU_R5FSS0_CORE1_intr_160_223                               
a66422b0  MAIN2MCU_PLS_INTRTR0_outp_0_47_to_MCU_R5FSS0_CORE0_intr_224_271                               
a66422b8  MAIN2MCU_PLS_INTRTR0_outp_0_47_to_MCU_R5FSS0_CORE1_intr_224_271                               
a66422c0  MCAN0_mcanss_ext_ts_rollover_lvl_int_0_0_to_MAIN2MCU_LVL_INTRTR0_in_18_18                     
a66422c8  MCAN0_mcanss_mcan_lvl_int_1_2_to_MAIN2MCU_LVL_INTRTR0_in_16_17                                
a66422d0  MCAN10_mcanss_ext_ts_rollover_lvl_int_0_0_to_MAIN2MCU_LVL_INTRTR0_in_298_298                  
a66422d8  MCAN10_mcanss_mcan_lvl_int_1_2_to_MAIN2MCU_LVL_INTRTR0_in_296_297                             
a66422e0  MCAN11_mcanss_ext_ts_rollover_lvl_int_0_0_to_MAIN2MCU_LVL_INTRTR0_in_301_301                  
a66422e8  MCAN11_mcanss_mcan_lvl_int_1_2_to_MAIN2MCU_LVL_INTRTR0_in_299_300                             
a66422f0  MCAN12_mcanss_ext_ts_rollover_lvl_int_0_0_to_MAIN2MCU_LVL_INTRTR0_in_304_304                  
a66422f8  MCAN12_mcanss_mcan_lvl_int_1_2_to_MAIN2MCU_LVL_INTRTR0_in_302_303                             
a6642300  MCAN13_mcanss_ext_ts_rollover_lvl_int_0_0_to_MAIN2MCU_LVL_INTRTR0_in_307_307                  
a6642308  MCAN13_mcanss_mcan_lvl_int_1_2_to_MAIN2MCU_LVL_INTRTR0_in_305_306                             
a6642310  MCAN14_mcanss_ext_ts_rollover_lvl_int_0_0_to_MAIN2MCU_LVL_INTRTR0_in_162_162                  
a6642318  MCAN14_mcanss_mcan_lvl_int_1_2_to_MAIN2MCU_LVL_INTRTR0_in_160_161                             
a6642320  MCAN15_mcanss_ext_ts_rollover_lvl_int_0_0_to_MAIN2MCU_LVL_INTRTR0_in_165_165                  
a6642328  MCAN15_mcanss_mcan_lvl_int_1_2_to_MAIN2MCU_LVL_INTRTR0_in_163_164                             
a6642330  MCAN16_mcanss_ext_ts_rollover_lvl_int_0_0_to_MAIN2MCU_LVL_INTRTR0_in_172_172                  
a6642338  MCAN16_mcanss_mcan_lvl_int_1_2_to_MAIN2MCU_LVL_INTRTR0_in_170_171                             
a6642340  MCAN17_mcanss_ext_ts_rollover_lvl_int_0_0_to_MAIN2MCU_LVL_INTRTR0_in_175_175                  
a6642348  MCAN17_mcanss_mcan_lvl_int_1_2_to_MAIN2MCU_LVL_INTRTR0_in_173_174                             
a6642350  MCAN1_mcanss_ext_ts_rollover_lvl_int_0_0_to_MAIN2MCU_LVL_INTRTR0_in_21_21                     
a6642358  MCAN1_mcanss_mcan_lvl_int_1_2_to_MAIN2MCU_LVL_INTRTR0_in_19_20                                
a6642360  MCAN2_mcanss_ext_ts_rollover_lvl_int_0_0_to_MAIN2MCU_LVL_INTRTR0_in_24_24                     
a6642368  MCAN2_mcanss_mcan_lvl_int_1_2_to_MAIN2MCU_LVL_INTRTR0_in_22_23                                
a6642370  MCAN3_mcanss_ext_ts_rollover_lvl_int_0_0_to_MAIN2MCU_LVL_INTRTR0_in_27_27                     
a6642378  MCAN3_mcanss_mcan_lvl_int_1_2_to_MAIN2MCU_LVL_INTRTR0_in_25_26                                
a6642380  MCAN4_mcanss_ext_ts_rollover_lvl_int_0_0_to_MAIN2MCU_LVL_INTRTR0_in_280_280                   
a6642388  MCAN4_mcanss_mcan_lvl_int_1_2_to_MAIN2MCU_LVL_INTRTR0_in_278_279                              
a6642390  MCAN5_mcanss_ext_ts_rollover_lvl_int_0_0_to_MAIN2MCU_LVL_INTRTR0_in_283_283                   
a6642398  MCAN5_mcanss_mcan_lvl_int_1_2_to_MAIN2MCU_LVL_INTRTR0_in_281_282                              
a66423a0  MCAN6_mcanss_ext_ts_rollover_lvl_int_0_0_to_MAIN2MCU_LVL_INTRTR0_in_286_286                   
a66423a8  MCAN6_mcanss_mcan_lvl_int_1_2_to_MAIN2MCU_LVL_INTRTR0_in_284_285                              
a66423b0  MCAN7_mcanss_ext_ts_rollover_lvl_int_0_0_to_MAIN2MCU_LVL_INTRTR0_in_289_289                   
a66423b8  MCAN7_mcanss_mcan_lvl_int_1_2_to_MAIN2MCU_LVL_INTRTR0_in_287_288                              
a66423c0  MCAN8_mcanss_ext_ts_rollover_lvl_int_0_0_to_MAIN2MCU_LVL_INTRTR0_in_292_292                   
a66423c8  MCAN8_mcanss_mcan_lvl_int_1_2_to_MAIN2MCU_LVL_INTRTR0_in_290_291                              
a66423d0  MCAN9_mcanss_ext_ts_rollover_lvl_int_0_0_to_MAIN2MCU_LVL_INTRTR0_in_295_295                   
a66423d8  MCAN9_mcanss_mcan_lvl_int_1_2_to_MAIN2MCU_LVL_INTRTR0_in_293_294                              
a66423e0  MCASP0_rec_intr_pend_0_0_to_MAIN2MCU_LVL_INTRTR0_in_177_177                                   
a66423e8  MCASP0_xmit_intr_pend_1_1_to_MAIN2MCU_LVL_INTRTR0_in_176_176                                  
a66423f0  MCASP1_rec_intr_pend_0_0_to_MAIN2MCU_LVL_INTRTR0_in_179_179                                   
a66423f8  MCASP1_xmit_intr_pend_1_1_to_MAIN2MCU_LVL_INTRTR0_in_178_178                                  
a6642400  MCASP2_rec_intr_pend_0_0_to_MAIN2MCU_LVL_INTRTR0_in_181_181                                   
a6642408  MCASP2_xmit_intr_pend_1_1_to_MAIN2MCU_LVL_INTRTR0_in_180_180                                  
a6642410  MCASP3_rec_intr_pend_0_0_to_MAIN2MCU_LVL_INTRTR0_in_183_183                                   
a6642418  MCASP3_xmit_intr_pend_1_1_to_MAIN2MCU_LVL_INTRTR0_in_182_182                                  
a6642420  MCASP4_rec_intr_pend_0_0_to_MAIN2MCU_LVL_INTRTR0_in_185_185                                   
a6642428  MCASP4_xmit_intr_pend_1_1_to_MAIN2MCU_LVL_INTRTR0_in_184_184                                  
a6642430  MCSPI0_intr_spi_0_0_to_MAIN2MCU_LVL_INTRTR0_in_48_48                                          
a6642438  MCSPI1_intr_spi_0_0_to_MAIN2MCU_LVL_INTRTR0_in_49_49                                          
a6642440  MCSPI2_intr_spi_0_0_to_MAIN2MCU_LVL_INTRTR0_in_50_50                                          
a6642448  MCSPI3_intr_spi_0_0_to_MAIN2MCU_LVL_INTRTR0_in_51_51                                          
a6642450  MCSPI4_intr_spi_0_0_to_MAIN2MCU_LVL_INTRTR0_in_52_52                                          
a6642458  MCSPI5_intr_spi_0_0_to_MAIN2MCU_LVL_INTRTR0_in_53_53                                          
a6642460  MCSPI6_intr_spi_0_0_to_MAIN2MCU_LVL_INTRTR0_in_54_54                                          
a6642468  MCSPI7_intr_spi_0_0_to_MAIN2MCU_LVL_INTRTR0_in_55_55                                          
a6642470  MCU_CPSW0_cpts_comp_0_0_to_CMPEVENT_INTRTR0_in_10_10                                          
a6642478  MCU_CPSW0_cpts_genf0_1_1_to_TIMESYNC_INTRTR0_in_16_16                                         
a6642480  MCU_CPSW0_cpts_genf1_2_2_to_TIMESYNC_INTRTR0_in_17_17                                         
a6642488  MCU_CPSW0_cpts_sync_3_3_to_TIMESYNC_INTRTR0_in_38_38                                          
a6642490  MCU_NAVSS0_INTR_ROUTER_0_outl_intr_0_23_to_MCU_R5FSS0_CORE0_intr_64_87                        
a6642498  MCU_NAVSS0_INTR_ROUTER_0_outl_intr_32_55_to_MCU_R5FSS0_CORE1_intr_64_87                       
a66424a0  MCU_NAVSS0_MCRC_0_dma_event_intr_0_3_to_MCU_NAVSS0_INTR_ROUTER_0_in_intr_256_259              
a66424a8  MCU_NAVSS0_MCRC_0_dma_event_intr_0_3_to_MCU_NAVSS0_UDMASS_INTA_0_intaggr_levi_pend_0_3        
a66424b0  MCU_NAVSS0_MCRC_0_intaggr_vintr_pend_4_4_to_MCU_NAVSS0_INTR_ROUTER_0_in_intr_260_260          
a66424b8  MCU_NAVSS0_UDMASS_INTA_0_intaggr_vintr_pend_0_255_to_MCU_NAVSS0_INTR_ROUTER_0_in_intr_0_255   
a66424c0  MCU_SA3_SS0_INTAGGR_0_intaggr_vintr_0_7_to_COMPUTE_CLUSTER_J7AHP0_CLEC_0_soc_events_in_896_903
a66424c8  MCU_SA3_SS0_INTAGGR_0_intaggr_vintr_0_7_to_COMPUTE_CLUSTER_J7AHP0_GIC500SS_0_spi_896_903      
a66424d0  MCU_SA3_SS0_INTAGGR_0_intaggr_vintr_0_7_to_MCU_R5FSS0_CORE0_intr_88_95                        
a66424d8  MCU_SA3_SS0_INTAGGR_0_intaggr_vintr_0_7_to_MCU_R5FSS0_CORE1_intr_88_95                        
a66424e0  MCU_SA3_SS0_INTAGGR_0_intaggr_vintr_2_3_to_R5FSS0_CORE0_intr_148_149                          
a66424e8  MCU_SA3_SS0_INTAGGR_0_intaggr_vintr_2_3_to_R5FSS0_CORE1_intr_148_149                          
a66424f0  MCU_SA3_SS0_INTAGGR_0_intaggr_vintr_4_5_to_R5FSS1_CORE0_intr_148_149                          
a66424f8  MCU_SA3_SS0_INTAGGR_0_intaggr_vintr_4_5_to_R5FSS1_CORE1_intr_148_149                          
a6642500  MMCSD0_emmcss_intr_0_0_to_MAIN2MCU_LVL_INTRTR0_in_28_28                                       
a6642508  MMCSD1_emmcsdss_intr_0_0_to_MAIN2MCU_LVL_INTRTR0_in_29_29                                     
a6642510  NAVSS0_CPTS_0_event_pend_intr_0_0_to_NAVSS0_INTR_0_in_intr_391_391                            
a6642518  NAVSS0_INTR_0_outl_intr_0_63_to_COMPUTE_CLUSTER_J7AHP0_CLEC_0_soc_events_in_64_127            
a6642520  NAVSS0_INTR_0_outl_intr_0_63_to_COMPUTE_CLUSTER_J7AHP0_GIC500SS_0_spi_64_127                  
a6642528  NAVSS0_INTR_0_outl_intr_128_191_to_COMPUTE_CLUSTER_J7AHP0_CLEC_0_soc_events_in_672_735        
a6642530  NAVSS0_INTR_0_outl_intr_128_191_to_COMPUTE_CLUSTER_J7AHP0_GIC500SS_0_spi_672_735              
a6642538  NAVSS0_INTR_0_outl_intr_192_223_to_R5FSS0_CORE0_intr_224_255                                  
a6642540  NAVSS0_INTR_0_outl_intr_224_255_to_R5FSS0_CORE1_intr_224_255                                  
a6642548  NAVSS0_INTR_0_outl_intr_256_287_to_R5FSS1_CORE0_intr_224_255                                  
a6642550  NAVSS0_INTR_0_outl_intr_288_319_to_R5FSS1_CORE1_intr_224_255                                  
a6642558  NAVSS0_INTR_0_outl_intr_400_407_to_MCU_R5FSS0_CORE0_intr_376_383                              
a6642560  NAVSS0_INTR_0_outl_intr_400_407_to_MCU_R5FSS0_CORE1_intr_376_383                              
a6642568  NAVSS0_INTR_0_outl_intr_408_439_to_VUSR_DUAL0_v0_vusr_in_int_0_31                             
a6642570  NAVSS0_INTR_0_outl_intr_408_439_to_VUSR_DUAL0_v1_vusr_in_int_32_63                            
a6642578  NAVSS0_INTR_0_outl_intr_64_127_to_COMPUTE_CLUSTER_J7AHP0_CLEC_0_soc_events_in_448_511         
a6642580  NAVSS0_INTR_0_outl_intr_64_127_to_COMPUTE_CLUSTER_J7AHP0_GIC500SS_0_spi_448_511               
a6642588  NAVSS0_MAILBOX1_0_pend_intr_0_3_to_NAVSS0_INTR_0_in_intr_484_487                              
a6642590  NAVSS0_MAILBOX1_0_pend_intr_0_3_to_NAVSS0_UDMASS_INTA_0_intaggr_levi_pend_4_7                 
a6642598  NAVSS0_MAILBOX1_10_pend_intr_0_3_to_NAVSS0_INTR_0_in_intr_444_447                             
a66425a0  NAVSS0_MAILBOX1_10_pend_intr_0_3_to_NAVSS0_UDMASS_INTA_0_intaggr_levi_pend_44_47              
a66425a8  NAVSS0_MAILBOX1_11_pend_intr_0_3_to_NAVSS0_INTR_0_in_intr_440_443                             
a66425b0  NAVSS0_MAILBOX1_11_pend_intr_0_3_to_NAVSS0_UDMASS_INTA_0_intaggr_levi_pend_48_51              
a66425b8  NAVSS0_MAILBOX1_1_pend_intr_0_3_to_NAVSS0_INTR_0_in_intr_480_483                              
a66425c0  NAVSS0_MAILBOX1_1_pend_intr_0_3_to_NAVSS0_UDMASS_INTA_0_intaggr_levi_pend_8_11                
a66425c8  NAVSS0_MAILBOX1_2_pend_intr_0_3_to_NAVSS0_INTR_0_in_intr_476_479                              
a66425d0  NAVSS0_MAILBOX1_2_pend_intr_0_3_to_NAVSS0_UDMASS_INTA_0_intaggr_levi_pend_12_15               
a66425d8  NAVSS0_MAILBOX1_3_pend_intr_0_3_to_NAVSS0_INTR_0_in_intr_472_475                              
a66425e0  NAVSS0_MAILBOX1_3_pend_intr_0_3_to_NAVSS0_UDMASS_INTA_0_intaggr_levi_pend_16_19               
a66425e8  NAVSS0_MAILBOX1_4_pend_intr_0_3_to_NAVSS0_INTR_0_in_intr_468_471                              
a66425f0  NAVSS0_MAILBOX1_4_pend_intr_0_3_to_NAVSS0_UDMASS_INTA_0_intaggr_levi_pend_20_23               
a66425f8  NAVSS0_MAILBOX1_5_pend_intr_0_3_to_NAVSS0_INTR_0_in_intr_464_467                              
a6642600  NAVSS0_MAILBOX1_5_pend_intr_0_3_to_NAVSS0_UDMASS_INTA_0_intaggr_levi_pend_24_27               
a6642608  NAVSS0_MAILBOX1_6_pend_intr_0_3_to_NAVSS0_INTR_0_in_intr_460_463                              
a6642610  NAVSS0_MAILBOX1_6_pend_intr_0_3_to_NAVSS0_UDMASS_INTA_0_intaggr_levi_pend_28_31               
a6642618  NAVSS0_MAILBOX1_7_pend_intr_0_3_to_NAVSS0_INTR_0_in_intr_456_459                              
a6642620  NAVSS0_MAILBOX1_7_pend_intr_0_3_to_NAVSS0_UDMASS_INTA_0_intaggr_levi_pend_32_35               
a6642628  NAVSS0_MAILBOX1_8_pend_intr_0_3_to_NAVSS0_INTR_0_in_intr_452_455                              
a6642630  NAVSS0_MAILBOX1_8_pend_intr_0_3_to_NAVSS0_UDMASS_INTA_0_intaggr_levi_pend_36_39               
a6642638  NAVSS0_MAILBOX1_9_pend_intr_0_3_to_NAVSS0_INTR_0_in_intr_448_451                              
a6642640  NAVSS0_MAILBOX1_9_pend_intr_0_3_to_NAVSS0_UDMASS_INTA_0_intaggr_levi_pend_40_43               
a6642648  NAVSS0_MAILBOX_0_pend_intr_0_3_to_NAVSS0_INTR_0_in_intr_436_439                               
a6642650  NAVSS0_MAILBOX_0_pend_intr_0_3_to_NAVSS0_UDMASS_INTA_0_intaggr_levi_pend_52_55                
a6642658  NAVSS0_MAILBOX_10_pend_intr_0_3_to_NAVSS0_INTR_0_in_intr_396_399                              
a6642660  NAVSS0_MAILBOX_10_pend_intr_0_3_to_NAVSS0_UDMASS_INTA_0_intaggr_levi_pend_92_95               
a6642668  NAVSS0_MAILBOX_11_pend_intr_0_3_to_NAVSS0_INTR_0_in_intr_392_395                              
a6642670  NAVSS0_MAILBOX_11_pend_intr_0_3_to_NAVSS0_UDMASS_INTA_0_intaggr_levi_pend_96_99               
a6642678  NAVSS0_MAILBOX_1_pend_intr_0_3_to_NAVSS0_INTR_0_in_intr_432_435                               
a6642680  NAVSS0_MAILBOX_1_pend_intr_0_3_to_NAVSS0_UDMASS_INTA_0_intaggr_levi_pend_56_59                
a6642688  NAVSS0_MAILBOX_2_pend_intr_0_3_to_NAVSS0_INTR_0_in_intr_428_431                               
a6642690  NAVSS0_MAILBOX_2_pend_intr_0_3_to_NAVSS0_UDMASS_INTA_0_intaggr_levi_pend_60_63                
a6642698  NAVSS0_MAILBOX_3_pend_intr_0_3_to_NAVSS0_INTR_0_in_intr_424_427                               
a66426a0  NAVSS0_MAILBOX_3_pend_intr_0_3_to_NAVSS0_UDMASS_INTA_0_intaggr_levi_pend_64_67                
a66426a8  NAVSS0_MAILBOX_4_pend_intr_0_3_to_NAVSS0_INTR_0_in_intr_420_423                               
a66426b0  NAVSS0_MAILBOX_4_pend_intr_0_3_to_NAVSS0_UDMASS_INTA_0_intaggr_levi_pend_68_71                
a66426b8  NAVSS0_MAILBOX_5_pend_intr_0_3_to_NAVSS0_INTR_0_in_intr_416_419                               
a66426c0  NAVSS0_MAILBOX_5_pend_intr_0_3_to_NAVSS0_UDMASS_INTA_0_intaggr_levi_pend_72_75                
a66426c8  NAVSS0_MAILBOX_6_pend_intr_0_3_to_NAVSS0_INTR_0_in_intr_412_415                               
a66426d0  NAVSS0_MAILBOX_6_pend_intr_0_3_to_NAVSS0_UDMASS_INTA_0_intaggr_levi_pend_76_79                
a66426d8  NAVSS0_MAILBOX_7_pend_intr_0_3_to_NAVSS0_INTR_0_in_intr_408_411                               
a66426e0  NAVSS0_MAILBOX_7_pend_intr_0_3_to_NAVSS0_UDMASS_INTA_0_intaggr_levi_pend_80_83                
a66426e8  NAVSS0_MAILBOX_8_pend_intr_0_3_to_NAVSS0_INTR_0_in_intr_404_407                               
a66426f0  NAVSS0_MAILBOX_8_pend_intr_0_3_to_NAVSS0_UDMASS_INTA_0_intaggr_levi_pend_84_87                
a66426f8  NAVSS0_MAILBOX_9_pend_intr_0_3_to_NAVSS0_INTR_0_in_intr_400_403                               
a6642700  NAVSS0_MAILBOX_9_pend_intr_0_3_to_NAVSS0_UDMASS_INTA_0_intaggr_levi_pend_88_91                
a6642708  NAVSS0_MCRC_0_dma_event_intr_0_3_to_NAVSS0_INTR_0_in_intr_384_387                             
a6642710  NAVSS0_MCRC_0_dma_event_intr_0_3_to_NAVSS0_UDMASS_INTA_0_intaggr_levi_pend_0_3                
a6642718  NAVSS0_MCRC_0_intaggr_vintr_pend_4_4_to_NAVSS0_INTR_0_in_intr_388_388                         
a6642720  NAVSS0_MODSS_INTA_0_intaggr_vintr_pend_0_63_to_NAVSS0_INTR_0_in_intr_320_383                  
a6642728  NAVSS0_MODSS_INTA_1_intaggr_vintr_pend_0_63_to_NAVSS0_INTR_0_in_intr_256_319                  
a6642730  NAVSS0_PVU_0_exp_intr_0_0_to_NAVSS0_INTR_0_in_intr_489_489                                    
a6642738  NAVSS0_PVU_1_exp_intr_0_0_to_NAVSS0_INTR_0_in_intr_488_488                                    
a6642740  NAVSS0_UDMASS_INTA_0_intaggr_vintr_pend_0_255_to_NAVSS0_INTR_0_in_intr_0_255                  
a6642748  NAVSS0_cpts0_comp_0_0_to_CMPEVENT_INTRTR0_in_8_8                                              
a6642750  NAVSS0_cpts0_genf0_1_1_to_TIMESYNC_INTRTR0_in_4_4                                             
a6642758  NAVSS0_cpts0_genf1_2_2_to_TIMESYNC_INTRTR0_in_5_5                                             
a6642760  NAVSS0_cpts0_genf2_3_3_to_TIMESYNC_INTRTR0_in_6_6                                             
a6642768  NAVSS0_cpts0_genf3_4_4_to_TIMESYNC_INTRTR0_in_7_7                                             
a6642770  NAVSS0_cpts0_genf4_5_5_to_TIMESYNC_INTRTR0_in_8_8                                             
a6642778  NAVSS0_cpts0_genf5_6_6_to_TIMESYNC_INTRTR0_in_9_9                                             
a6642780  NAVSS0_cpts0_sync_7_7_to_TIMESYNC_INTRTR0_in_36_36                                            
a6642788  PCIE1_pcie_cpts_comp_0_0_to_CMPEVENT_INTRTR0_in_5_5                                           
a6642790  PCIE1_pcie_cpts_genf0_1_1_to_TIMESYNC_INTRTR0_in_11_11                                        
a6642798  PCIE1_pcie_cpts_hw1_push_2_2_to_TIMESYNC_INTRTR0_in_21_21                                     
a66427a0  PCIE1_pcie_cpts_pend_3_3_to_MAIN2MCU_LVL_INTRTR0_in_75_75                                     
a66427a8  PCIE1_pcie_cpts_sync_4_4_to_TIMESYNC_INTRTR0_in_33_33                                         
a66427b0  PCIE1_pcie_downstream_pulse_5_5_to_MAIN2MCU_PLS_INTRTR0_in_41_41                              
a66427b8  PCIE1_pcie_dpa_pulse_6_6_to_MAIN2MCU_PLS_INTRTR0_in_21_21                                     
a66427c0  PCIE1_pcie_error_pulse_7_7_to_MAIN2MCU_PLS_INTRTR0_in_43_43                                   
a66427c8  PCIE1_pcie_flr_pulse_8_8_to_MAIN2MCU_PLS_INTRTR0_in_42_42                                     
a66427d0  PCIE1_pcie_hot_reset_pulse_9_9_to_MAIN2MCU_PLS_INTRTR0_in_47_47                               
a66427d8  PCIE1_pcie_legacy_pulse_10_10_to_MAIN2MCU_PLS_INTRTR0_in_40_40                                
a66427e0  PCIE1_pcie_link_state_pulse_11_11_to_MAIN2MCU_PLS_INTRTR0_in_44_44                            
a66427e8  PCIE1_pcie_local_level_12_12_to_MAIN2MCU_LVL_INTRTR0_in_74_74                                 
a66427f0  PCIE1_pcie_phy_level_13_13_to_MAIN2MCU_LVL_INTRTR0_in_73_73                                   
a66427f8  PCIE1_pcie_ptm_valid_pulse_14_14_to_MAIN2MCU_PLS_INTRTR0_in_46_46                             
a6642800  PCIE1_pcie_pwr_state_pulse_15_15_to_MAIN2MCU_PLS_INTRTR0_in_45_45                             
a6642808  SA2_UL0_sa_ul_pka_0_0_to_MAIN2MCU_LVL_INTRTR0_in_5_5                                          
a6642810  SA2_UL0_sa_ul_trng_1_1_to_MAIN2MCU_LVL_INTRTR0_in_4_4                                         
a6642818  TIMER0_intr_pend_0_0_to_MAIN2MCU_LVL_INTRTR0_in_108_108                                       
a6642820  TIMER10_intr_pend_0_0_to_MAIN2MCU_LVL_INTRTR0_in_118_118                                      
a6642828  TIMER11_intr_pend_0_0_to_MAIN2MCU_LVL_INTRTR0_in_119_119                                      
a6642830  TIMER12_intr_pend_0_0_to_MAIN2MCU_LVL_INTRTR0_in_120_120                                      
a6642838  TIMER13_intr_pend_0_0_to_MAIN2MCU_LVL_INTRTR0_in_121_121                                      
a6642840  TIMER14_intr_pend_0_0_to_MAIN2MCU_LVL_INTRTR0_in_122_122                                      
a6642848  TIMER14_timer_pwm_1_1_to_TIMESYNC_INTRTR0_in_2_2                                              
a6642850  TIMER15_intr_pend_0_0_to_MAIN2MCU_LVL_INTRTR0_in_123_123                                      
a6642858  TIMER15_timer_pwm_1_1_to_TIMESYNC_INTRTR0_in_3_3                                              
a6642860  TIMER16_intr_pend_0_0_to_MAIN2MCU_LVL_INTRTR0_in_124_124                                      
a6642868  TIMER16_timer_pwm_1_1_to_TIMESYNC_INTRTR0_in_40_40                                            
a6642870  TIMER17_intr_pend_0_0_to_MAIN2MCU_LVL_INTRTR0_in_125_125                                      
a6642878  TIMER17_timer_pwm_1_1_to_TIMESYNC_INTRTR0_in_41_41                                            
a6642880  TIMER18_intr_pend_0_0_to_MAIN2MCU_LVL_INTRTR0_in_126_126                                      
a6642888  TIMER18_timer_pwm_1_1_to_TIMESYNC_INTRTR0_in_42_42                                            
a6642890  TIMER19_intr_pend_0_0_to_MAIN2MCU_LVL_INTRTR0_in_127_127                                      
a6642898  TIMER19_timer_pwm_1_1_to_TIMESYNC_INTRTR0_in_43_43                                            
a66428a0  TIMER1_intr_pend_0_0_to_MAIN2MCU_LVL_INTRTR0_in_109_109                                       
a66428a8  TIMER2_intr_pend_0_0_to_MAIN2MCU_LVL_INTRTR0_in_110_110                                       
a66428b0  TIMER3_intr_pend_0_0_to_MAIN2MCU_LVL_INTRTR0_in_111_111                                       
a66428b8  TIMER4_intr_pend_0_0_to_MAIN2MCU_LVL_INTRTR0_in_112_112                                       
a66428c0  TIMER5_intr_pend_0_0_to_MAIN2MCU_LVL_INTRTR0_in_113_113                                       
a66428c8  TIMER6_intr_pend_0_0_to_MAIN2MCU_LVL_INTRTR0_in_114_114                                       
a66428d0  TIMER7_intr_pend_0_0_to_MAIN2MCU_LVL_INTRTR0_in_115_115                                       
a66428d8  TIMER8_intr_pend_0_0_to_MAIN2MCU_LVL_INTRTR0_in_116_116                                       
a66428e0  TIMER9_intr_pend_0_0_to_MAIN2MCU_LVL_INTRTR0_in_117_117                                       
a66428e8  TIMESYNC_INTRTR0_outl_0_0_to_NAVSS0_cpts0_hw1_push_0_0                                        
a66428f0  TIMESYNC_INTRTR0_outl_1_1_to_NAVSS0_cpts0_hw2_push_1_1                                        
a66428f8  TIMESYNC_INTRTR0_outl_21_21_to_PCIE1_pcie_cpts_hw2_push_0_0                                   
a6642900  TIMESYNC_INTRTR0_outl_24_24_to_MCU_CPSW0_cpts_hw3_push_0_0                                    
a6642908  TIMESYNC_INTRTR0_outl_25_25_to_MCU_CPSW0_cpts_hw4_push_1_1                                    
a6642910  TIMESYNC_INTRTR0_outl_2_2_to_NAVSS0_cpts0_hw3_push_2_2                                        
a6642918  TIMESYNC_INTRTR0_outl_38_38_to_CPSW1_cpts_hw3_push_0_0                                        
a6642920  TIMESYNC_INTRTR0_outl_39_39_to_CPSW1_cpts_hw4_push_1_1                                        
a6642928  TIMESYNC_INTRTR0_outl_3_3_to_NAVSS0_cpts0_hw4_push_3_3                                        
a6642930  TIMESYNC_INTRTR0_outl_40_47_to_NAVSS0_UDMASS_INTA_0_intaggr_levi_pend_100_107                 
a6642938  TIMESYNC_INTRTR0_outl_4_4_to_NAVSS0_cpts0_hw5_push_4_4                                        
a6642940  TIMESYNC_INTRTR0_outl_5_5_to_NAVSS0_cpts0_hw6_push_5_5                                        
a6642948  TIMESYNC_INTRTR0_outl_6_6_to_NAVSS0_cpts0_hw7_push_6_6                                        
a6642950  TIMESYNC_INTRTR0_outl_7_7_to_NAVSS0_cpts0_hw8_push_7_7                                        
a6642958  UART0_usart_irq_0_0_to_MAIN2MCU_LVL_INTRTR0_in_96_96                                          
a6642960  UART1_usart_irq_0_0_to_MAIN2MCU_LVL_INTRTR0_in_97_97                                          
a6642968  UART2_usart_irq_0_0_to_MAIN2MCU_LVL_INTRTR0_in_98_98                                          
a6642970  UART3_usart_irq_0_0_to_MAIN2MCU_LVL_INTRTR0_in_99_99                                          
a6642978  UART4_usart_irq_0_0_to_MAIN2MCU_LVL_INTRTR0_in_100_100                                        
a6642980  UART5_usart_irq_0_0_to_MAIN2MCU_LVL_INTRTR0_in_101_101                                        
a6642988  UART6_usart_irq_0_0_to_MAIN2MCU_LVL_INTRTR0_in_102_102                                        
a6642990  UART7_usart_irq_0_0_to_MAIN2MCU_LVL_INTRTR0_in_103_103                                        
a6642998  UART8_usart_irq_0_0_to_MAIN2MCU_LVL_INTRTR0_in_104_104                                        
a66429a0  UART9_usart_irq_0_0_to_MAIN2MCU_LVL_INTRTR0_in_105_105                                        
a66429a8  USB0_host_system_error_0_0_to_MAIN2MCU_LVL_INTRTR0_in_157_157                                 
a66429b0  USB0_irq_1_8_to_MAIN2MCU_LVL_INTRTR0_in_128_135                                               
a66429b8  USB0_otgirq_9_9_to_MAIN2MCU_LVL_INTRTR0_in_152_152                                            
a66429c0  VPAC0_vpac_level_0_5_to_MAIN2MCU_LVL_INTRTR0_in_270_275                                       
a66429c8  VUSR_DUAL0_v0_mcp_hi_intlvl_0_0_to_MAIN2MCU_LVL_INTRTR0_in_84_84                              
a66429d0  VUSR_DUAL0_v0_mcp_lo_intlvl_1_1_to_MAIN2MCU_LVL_INTRTR0_in_83_83                              
a66429d8  VUSR_DUAL0_v0_vusr_intlvl_2_2_to_MAIN2MCU_LVL_INTRTR0_in_82_82                                
a66429e0  VUSR_DUAL0_v1_mcp_hi_intlvl_3_3_to_MAIN2MCU_LVL_INTRTR0_in_87_87                              
a66429e8  VUSR_DUAL0_v1_mcp_lo_intlvl_4_4_to_MAIN2MCU_LVL_INTRTR0_in_86_86                              
a66429f0  VUSR_DUAL0_v1_vusr_intlvl_5_5_to_MAIN2MCU_LVL_INTRTR0_in_85_85                                
a66429f8  WKUP_GPIO0_gpio_bank_0_5_to_WKUP_GPIOMUX_INTRTR0_in_103_108                                   
a6642a00  WKUP_GPIO1_gpio_bank_0_5_to_WKUP_GPIOMUX_INTRTR0_in_112_117                                   
a6642a08  WKUP_GPIOMUX_INTRTR0_outp_0_15_to_MCU_R5FSS0_CORE0_intr_124_139                               
a6642a10  WKUP_GPIOMUX_INTRTR0_outp_0_15_to_MCU_R5FSS0_CORE1_intr_124_139                               
a6642a18  WKUP_GPIOMUX_INTRTR0_outp_12_19_to_MCU_NAVSS0_UDMASS_INTA_0_intaggr_levi_pend_4_11            
a6642a20  WKUP_GPIOMUX_INTRTR0_outp_16_31_to_COMPUTE_CLUSTER_J7AHP0_CLEC_0_soc_events_in_960_975        
a6642a28  WKUP_GPIOMUX_INTRTR0_outp_16_31_to_COMPUTE_CLUSTER_J7AHP0_GIC500SS_0_spi_960_975              
a6642a30  WKUP_GPIOMUX_INTRTR0_outp_16_31_to_R5FSS0_CORE0_intr_488_503                                  
a6642a38  WKUP_GPIOMUX_INTRTR0_outp_16_31_to_R5FSS0_CORE1_intr_488_503                                  
a6642a40  WKUP_GPIOMUX_INTRTR0_outp_16_31_to_R5FSS1_CORE0_intr_488_503                                  
a6642a48  WKUP_GPIOMUX_INTRTR0_outp_16_31_to_R5FSS1_CORE1_intr_488_503                                  
a6642a50  WKUP_GPIOMUX_INTRTR0_outp_8_15_to_WKUP_ESM0_esm_pls_event0_120_127                            
a6642a58  WKUP_GPIOMUX_INTRTR0_outp_8_15_to_WKUP_ESM0_esm_pls_event1_128_135                            
a6642a60  WKUP_GPIOMUX_INTRTR0_outp_8_15_to_WKUP_ESM0_esm_pls_event2_136_143                            
a6642a68  tisci_if_CSI_TX_IF_V2_0                                                                       
a6642a70  tisci_if_CSI_TX_IF_V2_1                                                                       
a6642a78  tisci_if_EPWM0                                                                                
a6642a80  tisci_if_EPWM1                                                                                
a6642a88  tisci_if_EPWM2                                                                                
a6642a90  tisci_if_EPWM3                                                                                
a6642a98  tisci_if_EPWM4                                                                                
a6642aa0  tisci_if_EPWM5                                                                                
a6642aa8  tisci_if_MAIN2MCU_LVL_INTRTR0                                                                 
a6642ab0  tisci_if_MAIN2MCU_PLS_INTRTR0                                                                 
a6642ab8  tisci_if_MCAN0                                                                                
a6642ac0  tisci_if_MCAN10                                                                               
a6642ac8  tisci_if_MCAN11                                                                               
a6642ad0  tisci_if_MCAN12                                                                               
a6642ad8  tisci_if_MCAN13                                                                               
a6642ae0  tisci_if_MCAN14                                                                               
a6642ae8  tisci_if_MCAN15                                                                               
a6642af0  tisci_if_MCAN16                                                                               
a6642af8  tisci_if_MCAN17                                                                               
a6642b00  tisci_if_MCAN1                                                                                
a6642b08  tisci_if_MCAN2                                                                                
a6642b10  tisci_if_MCAN3                                                                                
a6642b18  tisci_if_MCAN4                                                                                
a6642b20  tisci_if_MCAN5                                                                                
a6642b28  tisci_if_MCAN6                                                                                
a6642b30  tisci_if_MCAN7                                                                                
a6642b38  tisci_if_MCAN8                                                                                
a6642b40  tisci_if_MCAN9                                                                                
a6642b48  tisci_if_MCASP0                                                                               
a6642b50  tisci_if_MCASP1                                                                               
a6642b58  tisci_if_MCASP2                                                                               
a6642b60  tisci_if_MCASP3                                                                               
a6642b68  tisci_if_MCASP4                                                                               
a6642b70  tisci_if_MCU_NAVSS0_INTR_ROUTER_0                                                             
a6642b78  tisci_if_NAVSS0_MAILBOX1_0                                                                    
a6642b80  tisci_if_NAVSS0_MAILBOX1_10                                                                   
a6642b88  tisci_if_NAVSS0_MAILBOX1_11                                                                   
a6642b90  tisci_if_NAVSS0_MAILBOX1_1                                                                    
a6642b98  tisci_if_NAVSS0_MAILBOX1_2                                                                    
a6642ba0  tisci_if_NAVSS0_MAILBOX1_3                                                                    
a6642ba8  tisci_if_NAVSS0_MAILBOX1_4                                                                    
a6642bb0  tisci_if_NAVSS0_MAILBOX1_5                                                                    
a6642bb8  tisci_if_NAVSS0_MAILBOX1_6                                                                    
a6642bc0  tisci_if_NAVSS0_MAILBOX1_7                                                                    
a6642bc8  tisci_if_NAVSS0_MAILBOX1_8                                                                    
a6642bd0  tisci_if_NAVSS0_MAILBOX1_9                                                                    
a6642bd8  tisci_if_NAVSS0_MAILBOX_0                                                                     
a6642be0  tisci_if_NAVSS0_MAILBOX_10                                                                    
a6642be8  tisci_if_NAVSS0_MAILBOX_11                                                                    
a6642bf0  tisci_if_NAVSS0_MAILBOX_1                                                                     
a6642bf8  tisci_if_NAVSS0_MAILBOX_2                                                                     
a6642c00  tisci_if_NAVSS0_MAILBOX_3                                                                     
a6642c08  tisci_if_NAVSS0_MAILBOX_4                                                                     
a6642c10  tisci_if_NAVSS0_MAILBOX_5                                                                     
a6642c18  tisci_if_NAVSS0_MAILBOX_6                                                                     
a6642c20  tisci_if_NAVSS0_MAILBOX_7                                                                     
a6642c28  tisci_if_NAVSS0_MAILBOX_8                                                                     
a6642c30  tisci_if_NAVSS0_MAILBOX_9                                                                     
a6642c38  tisci_if_SA2_UL0                                                                              
a6642c40  tisci_if_TIMER14                                                                              
a6642c48  tisci_if_TIMER15                                                                              
a6642c50  tisci_if_TIMER16                                                                              
a6642c58  tisci_if_TIMER17                                                                              
a6642c60  tisci_if_TIMER18                                                                              
a6642c68  tisci_if_TIMER19                                                                              
a66431ac  tisci_if_DCC0                                                                                 
a66431b0  tisci_if_DCC1                                                                                 
a66431b4  tisci_if_DCC2                                                                                 
a66431b8  tisci_if_DCC3                                                                                 
a66431bc  tisci_if_DCC4                                                                                 
a66431c0  tisci_if_DCC5                                                                                 
a66431c4  tisci_if_DCC6                                                                                 
a66431c8  tisci_if_DCC7                                                                                 
a66431cc  tisci_if_DCC8                                                                                 
a66431d0  tisci_if_DCC9                                                                                 
a66431d4  tisci_if_DMPAC0_INTD_0                                                                        
a66431d8  tisci_if_DSS_DSI0                                                                             
a66431dc  tisci_if_DSS_DSI1                                                                             
a66431e0  tisci_if_DSS_EDP0                                                                             
a66431e4  tisci_if_ECAP0                                                                                
a66431e8  tisci_if_ECAP1                                                                                
a66431ec  tisci_if_ECAP2                                                                                
a66431f0  tisci_if_ELM0                                                                                 
a66431f4  tisci_if_EQEP0                                                                                
a66431f8  tisci_if_EQEP1                                                                                
a66431fc  tisci_if_EQEP2                                                                                
a6643200  tisci_if_GPIO0                                                                                
a6643204  tisci_if_GPIO2                                                                                
a6643208  tisci_if_GPIO4                                                                                
a664320c  tisci_if_GPIO6                                                                                
a6643210  tisci_if_GPMC0                                                                                
a6643214  tisci_if_GTC0                                                                                 
a6643218  tisci_if_I2C0                                                                                 
a664321c  tisci_if_I2C1                                                                                 
a6643220  tisci_if_I2C2                                                                                 
a6643224  tisci_if_I2C3                                                                                 
a6643228  tisci_if_I2C4                                                                                 
a664322c  tisci_if_I2C5                                                                                 
a6643230  tisci_if_I2C6                                                                                 
a6643234  tisci_if_J7AEP_GPU_BXS464_WRAP0                                                               
a6643238  tisci_if_J7AEP_GPU_BXS464_WRAP0_GPU_SS_0                                                      
a664323c  tisci_if_MCSPI0                                                                               
a6643240  tisci_if_MCSPI1                                                                               
a6643244  tisci_if_MCSPI2                                                                               
a6643248  tisci_if_MCSPI3                                                                               
a664324c  tisci_if_MCSPI4                                                                               
a6643250  tisci_if_MCSPI5                                                                               
a6643254  tisci_if_MCSPI6                                                                               
a6643258  tisci_if_MCSPI7                                                                               
a664325c  tisci_if_MCU_NAVSS0_UDMASS_INTA_0                                                             
a6643260  tisci_if_MMCSD0                                                                               
a6643264  tisci_if_MMCSD1                                                                               
a6643268  tisci_if_NAVSS0_CPTS_0                                                                        
a664326c  tisci_if_NAVSS0_MODSS_INTA_0                                                                  
a6643270  tisci_if_NAVSS0_MODSS_INTA_1                                                                  
a6643274  tisci_if_NAVSS0_PVU_0                                                                         
a6643278  tisci_if_NAVSS0_PVU_1                                                                         
a664327c  tisci_if_NAVSS0_UDMASS_INTA_0                                                                 
a6643280  tisci_if_TIMER0                                                                               
a6643284  tisci_if_TIMER10                                                                              
a6643288  tisci_if_TIMER11                                                                              
a664328c  tisci_if_TIMER12                                                                              
a6643290  tisci_if_TIMER13                                                                              
a6643294  tisci_if_TIMER1                                                                               
a6643298  tisci_if_TIMER2                                                                               
a664329c  tisci_if_TIMER3                                                                               
a66432a0  tisci_if_TIMER4                                                                               
a66432a4  tisci_if_TIMER5                                                                               
a66432a8  tisci_if_TIMER6                                                                               
a66432ac  tisci_if_TIMER7                                                                               
a66432b0  tisci_if_TIMER8                                                                               
a66432b4  tisci_if_TIMER9                                                                               
a66432b8  tisci_if_UART0                                                                                
a66432bc  tisci_if_UART1                                                                                
a66432c0  tisci_if_UART2                                                                                
a66432c4  tisci_if_UART3                                                                                
a66432c8  tisci_if_UART4                                                                                
a66432cc  tisci_if_UART5                                                                                
a66432d0  tisci_if_UART6                                                                                
a66432d4  tisci_if_UART7                                                                                
a66432d8  tisci_if_UART8                                                                                
a66432dc  tisci_if_UART9                                                                                
a66432e0  tisci_if_VPAC0                                                                                
a66432e4  tisci_if_WKUP_GPIO0                                                                           
a66432e8  tisci_if_WKUP_GPIO1                                                                           
a66432ec  uxTopUsedPriority                                                                             
a6ffac00  __UND_STACK_START                                                                             
a6ffad00  __SVC_STACK_START                                                                             
a6ffad00  __UND_STACK_END                                                                               
a6ffae00  __IRQ_STACK_START                                                                             
a6ffae00  __SVC_STACK_END                                                                               
a6ffbe00  __FIQ_STACK_START                                                                             
a6ffbe00  __IRQ_STACK_END                                                                               
a6ffbf00  __ABORT_STACK_START                                                                           
a6ffbf00  __FIQ_STACK_END                                                                               
a6ffc000  __ABORT_STACK_END                                                                             
a6ffc000  __stack                                                                                       
a7000000  __STACK_END                                                                                   
ffffffff  __TI_pprof_out_hndl                                                                           
ffffffff  __TI_prof_data_size                                                                           
ffffffff  __TI_prof_data_start                                                                          
ffffffff  __binit__                                                                                     
ffffffff  binit                                                                                         
UNDEFED   __c_args__                                                                                    

[1001 symbols]
